
========================================================================

** ELF Header Information

    File Name: .\obj\Smpl_LCD_Bmp.axf

    Machine class: ELFCLASS32 (32-bit)
    Data encoding: ELFDATA2LSB (Little endian)
    Header version: EV_CURRENT (Current version)
    Operating System ABI: none
    ABI Version: 0
    File Type: ET_EXEC (Executable) (2)
    Machine: EM_ARM (ARM)

    Image Entry point: 0x00000175
    Flags: EF_ARM_HASENTRY + EF_ARM_ABI_FLOAT_SOFT (0x05000202)

    ARM ELF revision: 5 (ABI version 2)

    Conforms to Soft float procedure-call standard

    Built with
    Component: ARM Compiler 5.06 update 5 (build 528) Tool: armasm [4d35e1]
    Component: ARM Compiler 5.06 update 5 (build 528) Tool: armlink [4d35e2]

    Header size: 52 bytes (0x34)
    Program header entry size: 32 bytes (0x20)
    Section header entry size: 40 bytes (0x28)

    Program header entries: 1
    Section header entries: 16

    Program header offset: 312004 (0x0004c2c4)
    Section header offset: 312036 (0x0004c2e4)

    Section header string table index: 15

========================================================================

** Program header #0 (PT_LOAD) [PF_X + PF_W + PF_R + PF_ARM_ENTRY]
    Size : 12208 bytes (9980 bytes in file)
    Virtual address: 0x00000000 (Alignment 8)


========================================================================

** Section #1 'ER_RO' (SHT_PROGBITS) [SHF_ALLOC + SHF_EXECINSTR]
    Size   : 7896 bytes (alignment 4)
    Address: 0x00000000

    $d.realdata
    RESET
    __Vectors
        0x00000000:    200010d8    ...     DCD    536875224
        0x00000004:    00000175    u...    DCD    373
        0x00000008:    00000195    ....    DCD    405
        0x0000000c:    00000197    ....    DCD    407
        0x00000010:    00000000    ....    DCD    0
        0x00000014:    00000000    ....    DCD    0
        0x00000018:    00000000    ....    DCD    0
        0x0000001c:    00000000    ....    DCD    0
        0x00000020:    00000000    ....    DCD    0
        0x00000024:    00000000    ....    DCD    0
        0x00000028:    00000000    ....    DCD    0
        0x0000002c:    00000199    ....    DCD    409
        0x00000030:    00000000    ....    DCD    0
        0x00000034:    00000000    ....    DCD    0
        0x00000038:    0000019b    ....    DCD    411
        0x0000003c:    0000019d    ....    DCD    413
        0x00000040:    000005f5    ....    DCD    1525
        0x00000044:    0000019f    ....    DCD    415
        0x00000048:    000016ed    ....    DCD    5869
        0x0000004c:    00001711    ....    DCD    5905
        0x00000050:    00001735    5...    DCD    5941
        0x00000054:    00001779    y...    DCD    6009
        0x00000058:    0000019f    ....    DCD    415
        0x0000005c:    0000019f    ....    DCD    415
        0x00000060:    0000019f    ....    DCD    415
        0x00000064:    0000019f    ....    DCD    415
        0x00000068:    0000019f    ....    DCD    415
        0x0000006c:    0000019f    ....    DCD    415
        0x00000070:    0000019f    ....    DCD    415
        0x00000074:    0000019f    ....    DCD    415
        0x00000078:    00001809    ....    DCD    6153
        0x0000007c:    0000186d    m...    DCD    6253
        0x00000080:    000018d1    ....    DCD    6353
        0x00000084:    00001935    5...    DCD    6453
        0x00000088:    0000019f    ....    DCD    415
        0x0000008c:    0000019f    ....    DCD    415
        0x00000090:    0000019f    ....    DCD    415
        0x00000094:    0000019f    ....    DCD    415
        0x00000098:    0000019f    ....    DCD    415
        0x0000009c:    0000019f    ....    DCD    415
        0x000000a0:    0000019f    ....    DCD    415
        0x000000a4:    0000019f    ....    DCD    415
        0x000000a8:    0000019f    ....    DCD    415
        0x000000ac:    0000019f    ....    DCD    415
        0x000000b0:    000017e1    ....    DCD    6113
        0x000000b4:    0000019f    ....    DCD    415
        0x000000b8:    0000019f    ....    DCD    415
        0x000000bc:    0000019f    ....    DCD    415
    $t
    !!!main
    __main
        0x000000c0:    f000f802    ....    BL       __scatterload ; 0xc8
        0x000000c4:    f000f846    ..F.    BL       __rt_entry ; 0x154
    !!!scatter
    __scatterload
    __scatterload_rt2
    __scatterload_rt2_thumb_only
        0x000000c8:    a00c        ..      ADR      r0,{pc}+0x34 ; 0xfc
        0x000000ca:    c830        0.      LDM      r0!,{r4,r5}
        0x000000cc:    3808        .8      SUBS     r0,r0,#8
        0x000000ce:    1824        $.      ADDS     r4,r4,r0
        0x000000d0:    182d        -.      ADDS     r5,r5,r0
        0x000000d2:    46a2        .F      MOV      r10,r4
        0x000000d4:    1e67        g.      SUBS     r7,r4,#1
        0x000000d6:    46ab        .F      MOV      r11,r5
    __scatterload_null
        0x000000d8:    4654        TF      MOV      r4,r10
        0x000000da:    465d        ]F      MOV      r5,r11
        0x000000dc:    42ac        .B      CMP      r4,r5
        0x000000de:    d101        ..      BNE      0xe4 ; __scatterload_null + 12
        0x000000e0:    f000f838    ..8.    BL       __rt_entry ; 0x154
        0x000000e4:    467e        ~F      MOV      r6,pc
        0x000000e6:    3e0f        .>      SUBS     r6,r6,#0xf
        0x000000e8:    cc0f        ..      LDM      r4!,{r0-r3}
        0x000000ea:    46b6        .F      MOV      lr,r6
        0x000000ec:    2601        .&      MOVS     r6,#1
        0x000000ee:    4233        3B      TST      r3,r6
        0x000000f0:    d000        ..      BEQ      0xf4 ; __scatterload_null + 28
        0x000000f2:    1afb        ..      SUBS     r3,r7,r3
        0x000000f4:    46a2        .F      MOV      r10,r4
        0x000000f6:    46ab        .F      MOV      r11,r5
        0x000000f8:    4333        3C      ORRS     r3,r3,r6
        0x000000fa:    4718        .G      BX       r3
    $d
        0x000000fc:    00001dbc    ....    DCD    7612
        0x00000100:    00001ddc    ....    DCD    7644
    $t
    !!handler_copy
    __scatterload_copy
        0x00000104:    3a10        .:      SUBS     r2,r2,#0x10
        0x00000106:    d302        ..      BCC      0x10e ; __scatterload_copy + 10
        0x00000108:    c878        x.      LDM      r0!,{r3-r6}
        0x0000010a:    c178        x.      STM      r1!,{r3-r6}
        0x0000010c:    d8fa        ..      BHI      __scatterload_copy ; 0x104
        0x0000010e:    0752        R.      LSLS     r2,r2,#29
        0x00000110:    d301        ..      BCC      0x116 ; __scatterload_copy + 18
        0x00000112:    c830        0.      LDM      r0!,{r4,r5}
        0x00000114:    c130        0.      STM      r1!,{r4,r5}
        0x00000116:    d501        ..      BPL      0x11c ; __scatterload_copy + 24
        0x00000118:    6804        .h      LDR      r4,[r0,#0]
        0x0000011a:    600c        .`      STR      r4,[r1,#0]
        0x0000011c:    4770        pG      BX       lr
        0x0000011e:    0000        ..      MOVS     r0,r0
    !!handler_zi
    __scatterload_zeroinit
        0x00000120:    2300        .#      MOVS     r3,#0
        0x00000122:    2400        .$      MOVS     r4,#0
        0x00000124:    2500        .%      MOVS     r5,#0
        0x00000126:    2600        .&      MOVS     r6,#0
        0x00000128:    3a10        .:      SUBS     r2,r2,#0x10
        0x0000012a:    d301        ..      BCC      0x130 ; __scatterload_zeroinit + 16
        0x0000012c:    c178        x.      STM      r1!,{r3-r6}
        0x0000012e:    d8fb        ..      BHI      0x128 ; __scatterload_zeroinit + 8
        0x00000130:    0752        R.      LSLS     r2,r2,#29
        0x00000132:    d300        ..      BCC      0x136 ; __scatterload_zeroinit + 22
        0x00000134:    c130        0.      STM      r1!,{r4,r5}
        0x00000136:    d500        ..      BPL      0x13a ; __scatterload_zeroinit + 26
        0x00000138:    600b        .`      STR      r3,[r1,#0]
        0x0000013a:    4770        pG      BX       lr
    .ARM.Collect$$_printf_percent$$00000000
    _printf_percent
        0x0000013c:    b510        ..      PUSH     {r4,lr}
    .ARM.Collect$$_printf_percent$$00000009
    _printf_d
        0x0000013e:    2964        d)      CMP      r1,#0x64
        0x00000140:    d102        ..      BNE      _printf_percent_end ; 0x148
        0x00000142:    f000f893    ....    BL       _printf_int_dec ; 0x26c
        0x00000146:    bd10        ..      POP      {r4,pc}
    .ARM.Collect$$_printf_percent$$00000017
    _printf_percent_end
        0x00000148:    2000        .       MOVS     r0,#0
        0x0000014a:    bd10        ..      POP      {r4,pc}
    .ARM.Collect$$libinit$$00000000
    __rt_lib_init
        0x0000014c:    b51f        ..      PUSH     {r0-r4,lr}
    .ARM.Collect$$libinit$$00000002
    .ARM.Collect$$libinit$$00000004
    .ARM.Collect$$libinit$$0000000A
    .ARM.Collect$$libinit$$0000000C
    .ARM.Collect$$libinit$$0000000E
    .ARM.Collect$$libinit$$00000011
    .ARM.Collect$$libinit$$00000013
    .ARM.Collect$$libinit$$00000015
    .ARM.Collect$$libinit$$00000017
    .ARM.Collect$$libinit$$00000019
    .ARM.Collect$$libinit$$0000001B
    .ARM.Collect$$libinit$$0000001D
    .ARM.Collect$$libinit$$0000001F
    .ARM.Collect$$libinit$$00000021
    .ARM.Collect$$libinit$$00000023
    .ARM.Collect$$libinit$$00000025
    .ARM.Collect$$libinit$$0000002C
    .ARM.Collect$$libinit$$0000002E
    .ARM.Collect$$libinit$$00000030
    .ARM.Collect$$libinit$$00000032
    .ARM.Collect$$libinit$$00000033
    __rt_lib_init_alloca_1
    __rt_lib_init_argv_1
    __rt_lib_init_atexit_1
    __rt_lib_init_clock_1
    __rt_lib_init_cpp_1
    __rt_lib_init_exceptions_1
    __rt_lib_init_fp_1
    __rt_lib_init_fp_trap_1
    __rt_lib_init_getenv_1
    __rt_lib_init_heap_1
    __rt_lib_init_lc_collate_1
    __rt_lib_init_lc_ctype_1
    __rt_lib_init_lc_monetary_1
    __rt_lib_init_lc_numeric_1
    __rt_lib_init_lc_time_1
    __rt_lib_init_preinit_1
    __rt_lib_init_rand_1
    __rt_lib_init_return
    __rt_lib_init_signal_1
    __rt_lib_init_stdio_1
    __rt_lib_init_user_alloc_1
        0x0000014e:    bd1f        ..      POP      {r0-r4,pc}
    .ARM.Collect$$libshutdown$$00000000
    __rt_lib_shutdown
        0x00000150:    b510        ..      PUSH     {r4,lr}
    .ARM.Collect$$libshutdown$$00000002
    .ARM.Collect$$libshutdown$$00000004
    .ARM.Collect$$libshutdown$$00000007
    .ARM.Collect$$libshutdown$$0000000A
    .ARM.Collect$$libshutdown$$0000000C
    .ARM.Collect$$libshutdown$$0000000F
    .ARM.Collect$$libshutdown$$00000010
    __rt_lib_shutdown_cpp_1
    __rt_lib_shutdown_fp_trap_1
    __rt_lib_shutdown_heap_1
    __rt_lib_shutdown_return
    __rt_lib_shutdown_signal_1
    __rt_lib_shutdown_stdio_1
    __rt_lib_shutdown_user_alloc_1
        0x00000152:    bd10        ..      POP      {r4,pc}
    .ARM.Collect$$rtentry$$00000000
    .ARM.Collect$$rtentry$$00000002
    .ARM.Collect$$rtentry$$00000004
    __rt_entry
    __rt_entry_presh_1
    __rt_entry_sh
        0x00000154:    f000fa1b    ....    BL       __user_setup_stackheap ; 0x58e
        0x00000158:    4611        .F      MOV      r1,r2
    .ARM.Collect$$rtentry$$00000009
    .ARM.Collect$$rtentry$$0000000A
    __rt_entry_li
    __rt_entry_postsh_1
        0x0000015a:    f7fffff7    ....    BL       __rt_lib_init ; 0x14c
    .ARM.Collect$$rtentry$$0000000C
    .ARM.Collect$$rtentry$$0000000D
    __rt_entry_main
    __rt_entry_postli_1
        0x0000015e:    f001fdf9    ....    BL       main ; 0x1d54
        0x00000162:    f000fa33    ..3.    BL       exit ; 0x5cc
    .ARM.Collect$$rtexit$$00000000
    __rt_exit
        0x00000166:    b403        ..      PUSH     {r0,r1}
    .ARM.Collect$$rtexit$$00000002
    .ARM.Collect$$rtexit$$00000003
    __rt_exit_ls
    __rt_exit_prels_1
        0x00000168:    f7fffff2    ....    BL       __rt_lib_shutdown ; 0x150
    .ARM.Collect$$rtexit$$00000004
    __rt_exit_exit
        0x0000016c:    bc03        ..      POP      {r0,r1}
        0x0000016e:    f000fa39    ..9.    BL       _sys_exit ; 0x5e4
        0x00000172:    0000        ..      MOVS     r0,r0
    .text
    Reset_Handler
        0x00000174:    480d        .H      LDR      r0,[pc,#52] ; [0x1ac] = 0x50000100
        0x00000176:    490e        .I      LDR      r1,[pc,#56] ; [0x1b0] = 0x59
        0x00000178:    6001        .`      STR      r1,[r0,#0]
        0x0000017a:    490e        .I      LDR      r1,[pc,#56] ; [0x1b4] = 0x16
        0x0000017c:    6001        .`      STR      r1,[r0,#0]
        0x0000017e:    490e        .I      LDR      r1,[pc,#56] ; [0x1b8] = 0x88
        0x00000180:    6001        .`      STR      r1,[r0,#0]
        0x00000182:    4a0e        .J      LDR      r2,[pc,#56] ; [0x1bc] = 0x50000024
        0x00000184:    490e        .I      LDR      r1,[pc,#56] ; [0x1c0] = 0x5aa5
        0x00000186:    6011        .`      STR      r1,[r2,#0]
        0x00000188:    2100        .!      MOVS     r1,#0
        0x0000018a:    6001        .`      STR      r1,[r0,#0]
        0x0000018c:    480d        .H      LDR      r0,[pc,#52] ; [0x1c4] = 0x1abd
        0x0000018e:    4780        .G      BLX      r0
        0x00000190:    480d        .H      LDR      r0,[pc,#52] ; [0x1c8] = 0xc1
        0x00000192:    4700        .G      BX       r0
    NMI_Handler
        0x00000194:    e7fe        ..      B        NMI_Handler ; 0x194
    HardFault_Handler
        0x00000196:    e7fe        ..      B        HardFault_Handler ; 0x196
    SVC_Handler
        0x00000198:    e7fe        ..      B        SVC_Handler ; 0x198
    PendSV_Handler
        0x0000019a:    e7fe        ..      B        PendSV_Handler ; 0x19a
    SysTick_Handler
        0x0000019c:    e7fe        ..      B        SysTick_Handler ; 0x19c
    Default_Handler
    ACMP_IRQHandler
    ADC_IRQHandler
    CAN0_IRQHandler
    I2C0_IRQHandler
    I2C1_IRQHandler
    I2S_IRQHandler
    PDMA_IRQHandler
    PS2_IRQHandler
    PWMA_IRQHandler
    PWMB_IRQHandler
    RTC_IRQHandler
    TMR0_IRQHandler
    TMR1_IRQHandler
    TMR2_IRQHandler
    TMR3_IRQHandler
    UART02_IRQHandler
    UART1_IRQHandler
    USBD_IRQHandler
    WDT_IRQHandler
        0x0000019e:    e7fe        ..      B        Default_Handler ; 0x19e
    __user_initial_stackheap
        0x000001a0:    480a        .H      LDR      r0,[pc,#40] ; [0x1cc] = 0x20000cd8
        0x000001a2:    490b        .I      LDR      r1,[pc,#44] ; [0x1d0] = 0x200010d8
        0x000001a4:    4a09        .J      LDR      r2,[pc,#36] ; [0x1cc] = 0x20000cd8
        0x000001a6:    4b0b        .K      LDR      r3,[pc,#44] ; [0x1d4] = 0x20000cd8
        0x000001a8:    4770        pG      BX       lr
    $d
        0x000001aa:    0000        ..      DCW    0
        0x000001ac:    50000100    ...P    DCD    1342177536
        0x000001b0:    00000059    Y...    DCD    89
        0x000001b4:    00000016    ....    DCD    22
        0x000001b8:    00000088    ....    DCD    136
        0x000001bc:    50000024    $..P    DCD    1342177316
        0x000001c0:    00005aa5    .Z..    DCD    23205
        0x000001c4:    00001abd    ....    DCD    6845
        0x000001c8:    000000c1    ....    DCD    193
        0x000001cc:    20000cd8    ...     DCD    536874200
        0x000001d0:    200010d8    ...     DCD    536875224
        0x000001d4:    20000cd8    ...     DCD    536874200
    $t
    .text
    __2sprintf
        0x000001d8:    b40f        ..      PUSH     {r0-r3}
        0x000001da:    b51c        ..      PUSH     {r2-r4,lr}
        0x000001dc:    4b07        .K      LDR      r3,[pc,#28] ; [0x1fc] = 0x379
        0x000001de:    aa06        ..      ADD      r2,sp,#0x18
        0x000001e0:    447b        {D      ADD      r3,r3,pc
        0x000001e2:    4669        iF      MOV      r1,sp
        0x000001e4:    9000        ..      STR      r0,[sp,#0]
        0x000001e6:    9805        ..      LDR      r0,[sp,#0x14]
        0x000001e8:    f000f9a5    ....    BL       _printf_char_common ; 0x536
        0x000001ec:    2000        .       MOVS     r0,#0
        0x000001ee:    4669        iF      MOV      r1,sp
        0x000001f0:    f000f9b4    ....    BL       _sputc ; 0x55c
        0x000001f4:    bc1c        ..      POP      {r2-r4}
        0x000001f6:    bc08        ..      POP      {r3}
        0x000001f8:    b004        ..      ADD      sp,sp,#0x10
        0x000001fa:    4718        .G      BX       r3
    $d
        0x000001fc:    00000379    y...    DCD    889
    $t
    .text
    __printf
        0x00000200:    b5f8        ..      PUSH     {r3-r7,lr}
        0x00000202:    460e        .F      MOV      r6,r1
        0x00000204:    4604        .F      MOV      r4,r0
        0x00000206:    2000        .       MOVS     r0,#0
        0x00000208:    6220         b      STR      r0,[r4,#0x20]
        0x0000020a:    4620         F      MOV      r0,r4
        0x0000020c:    68e1        .h      LDR      r1,[r4,#0xc]
        0x0000020e:    4788        .G      BLX      r1
        0x00000210:    2800        .(      CMP      r0,#0
        0x00000212:    d029        ).      BEQ      0x268 ; __printf + 104
        0x00000214:    2825        %(      CMP      r0,#0x25
        0x00000216:    d002        ..      BEQ      0x21e ; __printf + 30
        0x00000218:    6862        bh      LDR      r2,[r4,#4]
        0x0000021a:    68a1        .h      LDR      r1,[r4,#8]
        0x0000021c:    e020         .      B        0x260 ; __printf + 96
        0x0000021e:    68e1        .h      LDR      r1,[r4,#0xc]
        0x00000220:    4620         F      MOV      r0,r4
        0x00000222:    2700        .'      MOVS     r7,#0
        0x00000224:    4788        .G      BLX      r1
        0x00000226:    0005        ..      MOVS     r5,r0
        0x00000228:    d01e        ..      BEQ      0x268 ; __printf + 104
        0x0000022a:    4628        (F      MOV      r0,r5
        0x0000022c:    3841        A8      SUBS     r0,r0,#0x41
        0x0000022e:    2819        .(      CMP      r0,#0x19
        0x00000230:    d802        ..      BHI      0x238 ; __printf + 56
        0x00000232:    2701        .'      MOVS     r7,#1
        0x00000234:    02ff        ..      LSLS     r7,r7,#11
        0x00000236:    3520         5      ADDS     r5,r5,#0x20
        0x00000238:    4632        2F      MOV      r2,r6
        0x0000023a:    4620         F      MOV      r0,r4
        0x0000023c:    6027        '`      STR      r7,[r4,#0]
        0x0000023e:    4629        )F      MOV      r1,r5
        0x00000240:    f7ffff7c    ..|.    BL       _printf_percent ; 0x13c
        0x00000244:    2800        .(      CMP      r0,#0
        0x00000246:    d008        ..      BEQ      0x25a ; __printf + 90
        0x00000248:    2801        .(      CMP      r0,#1
        0x0000024a:    d004        ..      BEQ      0x256 ; __printf + 86
        0x0000024c:    1df6        ..      ADDS     r6,r6,#7
        0x0000024e:    08f6        ..      LSRS     r6,r6,#3
        0x00000250:    00f6        ..      LSLS     r6,r6,#3
        0x00000252:    3608        .6      ADDS     r6,r6,#8
        0x00000254:    e7d9        ..      B        0x20a ; __printf + 10
        0x00000256:    1d36        6.      ADDS     r6,r6,#4
        0x00000258:    e7d7        ..      B        0x20a ; __printf + 10
        0x0000025a:    6862        bh      LDR      r2,[r4,#4]
        0x0000025c:    4628        (F      MOV      r0,r5
        0x0000025e:    68a1        .h      LDR      r1,[r4,#8]
        0x00000260:    4790        .G      BLX      r2
        0x00000262:    6a20         j      LDR      r0,[r4,#0x20]
        0x00000264:    1c40        @.      ADDS     r0,r0,#1
        0x00000266:    e7cf        ..      B        0x208 ; __printf + 8
        0x00000268:    6a20         j      LDR      r0,[r4,#0x20]
        0x0000026a:    bdf8        ..      POP      {r3-r7,pc}
    .text
    _printf_int_dec
        0x0000026c:    b5f7        ..      PUSH     {r0-r2,r4-r7,lr}
        0x0000026e:    2500        .%      MOVS     r5,#0
        0x00000270:    2975        u)      CMP      r1,#0x75
        0x00000272:    6810        .h      LDR      r0,[r2,#0]
        0x00000274:    9900        ..      LDR      r1,[sp,#0]
        0x00000276:    a614        ..      ADR      r6,{pc}+0x52 ; 0x2c8
        0x00000278:    d011        ..      BEQ      0x29e ; _printf_int_dec + 50
        0x0000027a:    46c0        .F      MOV      r8,r8
        0x0000027c:    46c0        .F      MOV      r8,r8
        0x0000027e:    2800        .(      CMP      r0,#0
        0x00000280:    da02        ..      BGE      0x288 ; _printf_int_dec + 28
        0x00000282:    4240        @B      RSBS     r0,r0,#0
        0x00000284:    a611        ..      ADR      r6,{pc}+0x48 ; 0x2cc
        0x00000286:    e008        ..      B        0x29a ; _printf_int_dec + 46
        0x00000288:    9900        ..      LDR      r1,[sp,#0]
        0x0000028a:    6809        .h      LDR      r1,[r1,#0]
        0x0000028c:    078a        ..      LSLS     r2,r1,#30
        0x0000028e:    d501        ..      BPL      0x294 ; _printf_int_dec + 40
        0x00000290:    a60f        ..      ADR      r6,{pc}+0x40 ; 0x2d0
        0x00000292:    e002        ..      B        0x29a ; _printf_int_dec + 46
        0x00000294:    0749        I.      LSLS     r1,r1,#29
        0x00000296:    d504        ..      BPL      0x2a2 ; _printf_int_dec + 54
        0x00000298:    a60e        ..      ADR      r6,{pc}+0x3c ; 0x2d4
        0x0000029a:    2501        .%      MOVS     r5,#1
        0x0000029c:    e001        ..      B        0x2a2 ; _printf_int_dec + 54
        0x0000029e:    46c0        .F      MOV      r8,r8
        0x000002a0:    46c0        .F      MOV      r8,r8
        0x000002a2:    9f00        ..      LDR      r7,[sp,#0]
        0x000002a4:    2400        .$      MOVS     r4,#0
        0x000002a6:    3724        $7      ADDS     r7,r7,#0x24
        0x000002a8:    e004        ..      B        0x2b4 ; _printf_int_dec + 72
        0x000002aa:    f000f95c    ..\.    BL       __rt_udiv10 ; 0x566
        0x000002ae:    3130        01      ADDS     r1,r1,#0x30
        0x000002b0:    5539        9U      STRB     r1,[r7,r4]
        0x000002b2:    1c64        d.      ADDS     r4,r4,#1
        0x000002b4:    2800        .(      CMP      r0,#0
        0x000002b6:    d1f8        ..      BNE      0x2aa ; _printf_int_dec + 62
        0x000002b8:    462b        +F      MOV      r3,r5
        0x000002ba:    4632        2F      MOV      r2,r6
        0x000002bc:    4621        !F      MOV      r1,r4
        0x000002be:    9800        ..      LDR      r0,[sp,#0]
        0x000002c0:    f000f8dc    ....    BL       _printf_int_common ; 0x47c
        0x000002c4:    bdfe        ..      POP      {r1-r7,pc}
    $d
        0x000002c6:    0000        ..      DCW    0
        0x000002c8:    00000000    ....    DCD    0
        0x000002cc:    0000002d    -...    DCD    45
        0x000002d0:    0000002b    +...    DCD    43
        0x000002d4:    00000020     ...    DCD    32
    $t
    .text
    strlen
        0x000002d8:    b530        0.      PUSH     {r4,r5,lr}
        0x000002da:    1c44        D.      ADDS     r4,r0,#1
        0x000002dc:    e003        ..      B        0x2e6 ; strlen + 14
        0x000002de:    7801        .x      LDRB     r1,[r0,#0]
        0x000002e0:    1c40        @.      ADDS     r0,r0,#1
        0x000002e2:    2900        .)      CMP      r1,#0
        0x000002e4:    d00d        ..      BEQ      0x302 ; strlen + 42
        0x000002e6:    0781        ..      LSLS     r1,r0,#30
        0x000002e8:    d1f9        ..      BNE      0x2de ; strlen + 6
        0x000002ea:    4b0b        .K      LDR      r3,[pc,#44] ; [0x318] = 0x1010101
        0x000002ec:    01dd        ..      LSLS     r5,r3,#7
        0x000002ee:    c804        ..      LDM      r0!,{r2}
        0x000002f0:    1ad1        ..      SUBS     r1,r2,r3
        0x000002f2:    4391        .C      BICS     r1,r1,r2
        0x000002f4:    4029        )@      ANDS     r1,r1,r5
        0x000002f6:    d0fa        ..      BEQ      0x2ee ; strlen + 22
        0x000002f8:    1b00        ..      SUBS     r0,r0,r4
        0x000002fa:    060a        ..      LSLS     r2,r1,#24
        0x000002fc:    d003        ..      BEQ      0x306 ; strlen + 46
        0x000002fe:    1ec0        ..      SUBS     r0,r0,#3
        0x00000300:    bd30        0.      POP      {r4,r5,pc}
        0x00000302:    1b00        ..      SUBS     r0,r0,r4
        0x00000304:    bd30        0.      POP      {r4,r5,pc}
        0x00000306:    040a        ..      LSLS     r2,r1,#16
        0x00000308:    d001        ..      BEQ      0x30e ; strlen + 54
        0x0000030a:    1e80        ..      SUBS     r0,r0,#2
        0x0000030c:    bd30        0.      POP      {r4,r5,pc}
        0x0000030e:    0209        ..      LSLS     r1,r1,#8
        0x00000310:    d0fc        ..      BEQ      0x30c ; strlen + 52
        0x00000312:    1e40        @.      SUBS     r0,r0,#1
        0x00000314:    bd30        0.      POP      {r4,r5,pc}
    $d
        0x00000316:    0000        ..      DCW    0
        0x00000318:    01010101    ....    DCD    16843009
    $t
    .text
    __aeabi_uidiv
    __aeabi_uidivmod
        0x0000031c:    2200        ."      MOVS     r2,#0
        0x0000031e:    0903        ..      LSRS     r3,r0,#4
        0x00000320:    428b        .B      CMP      r3,r1
        0x00000322:    d32c        ,.      BCC      0x37e ; __aeabi_idiv + 78
        0x00000324:    0a03        ..      LSRS     r3,r0,#8
        0x00000326:    428b        .B      CMP      r3,r1
        0x00000328:    d311        ..      BCC      0x34e ; __aeabi_idiv + 30
        0x0000032a:    2300        .#      MOVS     r3,#0
        0x0000032c:    469c        .F      MOV      r12,r3
        0x0000032e:    e04e        N.      B        0x3ce ; __aeabi_idiv + 158
    __aeabi_idiv
    __aeabi_idivmod
        0x00000330:    4603        .F      MOV      r3,r0
        0x00000332:    430b        .C      ORRS     r3,r3,r1
        0x00000334:    d43c        <.      BMI      0x3b0 ; __aeabi_idiv + 128
        0x00000336:    2200        ."      MOVS     r2,#0
        0x00000338:    0843        C.      LSRS     r3,r0,#1
        0x0000033a:    428b        .B      CMP      r3,r1
        0x0000033c:    d331        1.      BCC      0x3a2 ; __aeabi_idiv + 114
        0x0000033e:    0903        ..      LSRS     r3,r0,#4
        0x00000340:    428b        .B      CMP      r3,r1
        0x00000342:    d31c        ..      BCC      0x37e ; __aeabi_idiv + 78
        0x00000344:    0a03        ..      LSRS     r3,r0,#8
        0x00000346:    428b        .B      CMP      r3,r1
        0x00000348:    d301        ..      BCC      0x34e ; __aeabi_idiv + 30
        0x0000034a:    4694        .F      MOV      r12,r2
        0x0000034c:    e03f        ?.      B        0x3ce ; __aeabi_idiv + 158
        0x0000034e:    09c3        ..      LSRS     r3,r0,#7
        0x00000350:    428b        .B      CMP      r3,r1
        0x00000352:    d301        ..      BCC      0x358 ; __aeabi_idiv + 40
        0x00000354:    01cb        ..      LSLS     r3,r1,#7
        0x00000356:    1ac0        ..      SUBS     r0,r0,r3
        0x00000358:    4152        RA      ADCS     r2,r2,r2
        0x0000035a:    0983        ..      LSRS     r3,r0,#6
        0x0000035c:    428b        .B      CMP      r3,r1
        0x0000035e:    d301        ..      BCC      0x364 ; __aeabi_idiv + 52
        0x00000360:    018b        ..      LSLS     r3,r1,#6
        0x00000362:    1ac0        ..      SUBS     r0,r0,r3
        0x00000364:    4152        RA      ADCS     r2,r2,r2
        0x00000366:    0943        C.      LSRS     r3,r0,#5
        0x00000368:    428b        .B      CMP      r3,r1
        0x0000036a:    d301        ..      BCC      0x370 ; __aeabi_idiv + 64
        0x0000036c:    014b        K.      LSLS     r3,r1,#5
        0x0000036e:    1ac0        ..      SUBS     r0,r0,r3
        0x00000370:    4152        RA      ADCS     r2,r2,r2
        0x00000372:    0903        ..      LSRS     r3,r0,#4
        0x00000374:    428b        .B      CMP      r3,r1
        0x00000376:    d301        ..      BCC      0x37c ; __aeabi_idiv + 76
        0x00000378:    010b        ..      LSLS     r3,r1,#4
        0x0000037a:    1ac0        ..      SUBS     r0,r0,r3
        0x0000037c:    4152        RA      ADCS     r2,r2,r2
        0x0000037e:    08c3        ..      LSRS     r3,r0,#3
        0x00000380:    428b        .B      CMP      r3,r1
        0x00000382:    d301        ..      BCC      0x388 ; __aeabi_idiv + 88
        0x00000384:    00cb        ..      LSLS     r3,r1,#3
        0x00000386:    1ac0        ..      SUBS     r0,r0,r3
        0x00000388:    4152        RA      ADCS     r2,r2,r2
        0x0000038a:    0883        ..      LSRS     r3,r0,#2
        0x0000038c:    428b        .B      CMP      r3,r1
        0x0000038e:    d301        ..      BCC      0x394 ; __aeabi_idiv + 100
        0x00000390:    008b        ..      LSLS     r3,r1,#2
        0x00000392:    1ac0        ..      SUBS     r0,r0,r3
        0x00000394:    4152        RA      ADCS     r2,r2,r2
        0x00000396:    0843        C.      LSRS     r3,r0,#1
        0x00000398:    428b        .B      CMP      r3,r1
        0x0000039a:    d301        ..      BCC      0x3a0 ; __aeabi_idiv + 112
        0x0000039c:    004b        K.      LSLS     r3,r1,#1
        0x0000039e:    1ac0        ..      SUBS     r0,r0,r3
        0x000003a0:    4152        RA      ADCS     r2,r2,r2
        0x000003a2:    1a41        A.      SUBS     r1,r0,r1
        0x000003a4:    d200        ..      BCS      0x3a8 ; __aeabi_idiv + 120
        0x000003a6:    4601        .F      MOV      r1,r0
        0x000003a8:    4152        RA      ADCS     r2,r2,r2
        0x000003aa:    4610        .F      MOV      r0,r2
        0x000003ac:    4770        pG      BX       lr
        0x000003ae:    e05d        ].      B        0x46c ; __aeabi_idiv + 316
        0x000003b0:    0fca        ..      LSRS     r2,r1,#31
        0x000003b2:    d000        ..      BEQ      0x3b6 ; __aeabi_idiv + 134
        0x000003b4:    4249        IB      RSBS     r1,r1,#0
        0x000003b6:    1003        ..      ASRS     r3,r0,#32
        0x000003b8:    d300        ..      BCC      0x3bc ; __aeabi_idiv + 140
        0x000003ba:    4240        @B      RSBS     r0,r0,#0
        0x000003bc:    4053        S@      EORS     r3,r3,r2
        0x000003be:    2200        ."      MOVS     r2,#0
        0x000003c0:    469c        .F      MOV      r12,r3
        0x000003c2:    0903        ..      LSRS     r3,r0,#4
        0x000003c4:    428b        .B      CMP      r3,r1
        0x000003c6:    d32d        -.      BCC      0x424 ; __aeabi_idiv + 244
        0x000003c8:    0a03        ..      LSRS     r3,r0,#8
        0x000003ca:    428b        .B      CMP      r3,r1
        0x000003cc:    d312        ..      BCC      0x3f4 ; __aeabi_idiv + 196
        0x000003ce:    22fc        ."      MOVS     r2,#0xfc
        0x000003d0:    0189        ..      LSLS     r1,r1,#6
        0x000003d2:    ba12        ..      REV      r2,r2
        0x000003d4:    0a03        ..      LSRS     r3,r0,#8
        0x000003d6:    428b        .B      CMP      r3,r1
        0x000003d8:    d30c        ..      BCC      0x3f4 ; __aeabi_idiv + 196
        0x000003da:    0189        ..      LSLS     r1,r1,#6
        0x000003dc:    1192        ..      ASRS     r2,r2,#6
        0x000003de:    428b        .B      CMP      r3,r1
        0x000003e0:    d308        ..      BCC      0x3f4 ; __aeabi_idiv + 196
        0x000003e2:    0189        ..      LSLS     r1,r1,#6
        0x000003e4:    1192        ..      ASRS     r2,r2,#6
        0x000003e6:    428b        .B      CMP      r3,r1
        0x000003e8:    d304        ..      BCC      0x3f4 ; __aeabi_idiv + 196
        0x000003ea:    0189        ..      LSLS     r1,r1,#6
        0x000003ec:    d03a        :.      BEQ      0x464 ; __aeabi_idiv + 308
        0x000003ee:    1192        ..      ASRS     r2,r2,#6
        0x000003f0:    e000        ..      B        0x3f4 ; __aeabi_idiv + 196
        0x000003f2:    0989        ..      LSRS     r1,r1,#6
        0x000003f4:    09c3        ..      LSRS     r3,r0,#7
        0x000003f6:    428b        .B      CMP      r3,r1
        0x000003f8:    d301        ..      BCC      0x3fe ; __aeabi_idiv + 206
        0x000003fa:    01cb        ..      LSLS     r3,r1,#7
        0x000003fc:    1ac0        ..      SUBS     r0,r0,r3
        0x000003fe:    4152        RA      ADCS     r2,r2,r2
        0x00000400:    0983        ..      LSRS     r3,r0,#6
        0x00000402:    428b        .B      CMP      r3,r1
        0x00000404:    d301        ..      BCC      0x40a ; __aeabi_idiv + 218
        0x00000406:    018b        ..      LSLS     r3,r1,#6
        0x00000408:    1ac0        ..      SUBS     r0,r0,r3
        0x0000040a:    4152        RA      ADCS     r2,r2,r2
        0x0000040c:    0943        C.      LSRS     r3,r0,#5
        0x0000040e:    428b        .B      CMP      r3,r1
        0x00000410:    d301        ..      BCC      0x416 ; __aeabi_idiv + 230
        0x00000412:    014b        K.      LSLS     r3,r1,#5
        0x00000414:    1ac0        ..      SUBS     r0,r0,r3
        0x00000416:    4152        RA      ADCS     r2,r2,r2
        0x00000418:    0903        ..      LSRS     r3,r0,#4
        0x0000041a:    428b        .B      CMP      r3,r1
        0x0000041c:    d301        ..      BCC      0x422 ; __aeabi_idiv + 242
        0x0000041e:    010b        ..      LSLS     r3,r1,#4
        0x00000420:    1ac0        ..      SUBS     r0,r0,r3
        0x00000422:    4152        RA      ADCS     r2,r2,r2
        0x00000424:    08c3        ..      LSRS     r3,r0,#3
        0x00000426:    428b        .B      CMP      r3,r1
        0x00000428:    d301        ..      BCC      0x42e ; __aeabi_idiv + 254
        0x0000042a:    00cb        ..      LSLS     r3,r1,#3
        0x0000042c:    1ac0        ..      SUBS     r0,r0,r3
        0x0000042e:    4152        RA      ADCS     r2,r2,r2
        0x00000430:    0883        ..      LSRS     r3,r0,#2
        0x00000432:    428b        .B      CMP      r3,r1
        0x00000434:    d301        ..      BCC      0x43a ; __aeabi_idiv + 266
        0x00000436:    008b        ..      LSLS     r3,r1,#2
        0x00000438:    1ac0        ..      SUBS     r0,r0,r3
        0x0000043a:    4152        RA      ADCS     r2,r2,r2
        0x0000043c:    d2d9        ..      BCS      0x3f2 ; __aeabi_idiv + 194
        0x0000043e:    0843        C.      LSRS     r3,r0,#1
        0x00000440:    428b        .B      CMP      r3,r1
        0x00000442:    d301        ..      BCC      0x448 ; __aeabi_idiv + 280
        0x00000444:    004b        K.      LSLS     r3,r1,#1
        0x00000446:    1ac0        ..      SUBS     r0,r0,r3
        0x00000448:    4152        RA      ADCS     r2,r2,r2
        0x0000044a:    1a41        A.      SUBS     r1,r0,r1
        0x0000044c:    d200        ..      BCS      0x450 ; __aeabi_idiv + 288
        0x0000044e:    4601        .F      MOV      r1,r0
        0x00000450:    4663        cF      MOV      r3,r12
        0x00000452:    4152        RA      ADCS     r2,r2,r2
        0x00000454:    105b        [.      ASRS     r3,r3,#1
        0x00000456:    4610        .F      MOV      r0,r2
        0x00000458:    d301        ..      BCC      0x45e ; __aeabi_idiv + 302
        0x0000045a:    4240        @B      RSBS     r0,r0,#0
        0x0000045c:    2b00        .+      CMP      r3,#0
        0x0000045e:    d500        ..      BPL      0x462 ; __aeabi_idiv + 306
        0x00000460:    4249        IB      RSBS     r1,r1,#0
        0x00000462:    4770        pG      BX       lr
        0x00000464:    4663        cF      MOV      r3,r12
        0x00000466:    105b        [.      ASRS     r3,r3,#1
        0x00000468:    d300        ..      BCC      0x46c ; __aeabi_idiv + 316
        0x0000046a:    4240        @B      RSBS     r0,r0,#0
        0x0000046c:    b501        ..      PUSH     {r0,lr}
        0x0000046e:    2000        .       MOVS     r0,#0
        0x00000470:    46c0        .F      MOV      r8,r8
        0x00000472:    46c0        .F      MOV      r8,r8
        0x00000474:    bd02        ..      POP      {r1,pc}
    .text
    __use_two_region_memory
        0x00000476:    4770        pG      BX       lr
    __rt_heap_escrow$2region
        0x00000478:    4770        pG      BX       lr
    __rt_heap_expand$2region
        0x0000047a:    4770        pG      BX       lr
    .text
    _printf_int_common
        0x0000047c:    b5ff        ..      PUSH     {r0-r7,lr}
        0x0000047e:    4604        .F      MOV      r4,r0
        0x00000480:    460d        .F      MOV      r5,r1
        0x00000482:    b081        ..      SUB      sp,sp,#4
        0x00000484:    3024        $0      ADDS     r0,r0,#0x24
        0x00000486:    9000        ..      STR      r0,[sp,#0]
        0x00000488:    6821        !h      LDR      r1,[r4,#0]
        0x0000048a:    0688        ..      LSLS     r0,r1,#26
        0x0000048c:    d504        ..      BPL      0x498 ; _printf_int_common + 28
        0x0000048e:    2210        ."      MOVS     r2,#0x10
        0x00000490:    69e0        .i      LDR      r0,[r4,#0x1c]
        0x00000492:    4391        .C      BICS     r1,r1,r2
        0x00000494:    6021        !`      STR      r1,[r4,#0]
        0x00000496:    e000        ..      B        0x49a ; _printf_int_common + 30
        0x00000498:    2001        .       MOVS     r0,#1
        0x0000049a:    42a8        .B      CMP      r0,r5
        0x0000049c:    dd01        ..      BLE      0x4a2 ; _printf_int_common + 38
        0x0000049e:    1b47        G.      SUBS     r7,r0,r5
        0x000004a0:    e000        ..      B        0x4a4 ; _printf_int_common + 40
        0x000004a2:    2700        .'      MOVS     r7,#0
        0x000004a4:    9804        ..      LDR      r0,[sp,#0x10]
        0x000004a6:    69a1        .i      LDR      r1,[r4,#0x18]
        0x000004a8:    197a        z.      ADDS     r2,r7,r5
        0x000004aa:    1810        ..      ADDS     r0,r2,r0
        0x000004ac:    1a08        ..      SUBS     r0,r1,r0
        0x000004ae:    61a0        .a      STR      r0,[r4,#0x18]
        0x000004b0:    7820         x      LDRB     r0,[r4,#0]
        0x000004b2:    06c0        ..      LSLS     r0,r0,#27
        0x000004b4:    d402        ..      BMI      0x4bc ; _printf_int_common + 64
        0x000004b6:    4620         F      MOV      r0,r4
        0x000004b8:    46c0        .F      MOV      r8,r8
        0x000004ba:    46c0        .F      MOV      r8,r8
        0x000004bc:    2600        .&      MOVS     r6,#0
        0x000004be:    e008        ..      B        0x4d2 ; _printf_int_common + 86
        0x000004c0:    9803        ..      LDR      r0,[sp,#0xc]
        0x000004c2:    6862        bh      LDR      r2,[r4,#4]
        0x000004c4:    68a1        .h      LDR      r1,[r4,#8]
        0x000004c6:    5d80        .]      LDRB     r0,[r0,r6]
        0x000004c8:    4790        .G      BLX      r2
        0x000004ca:    6a20         j      LDR      r0,[r4,#0x20]
        0x000004cc:    1c40        @.      ADDS     r0,r0,#1
        0x000004ce:    1c76        v.      ADDS     r6,r6,#1
        0x000004d0:    6220         b      STR      r0,[r4,#0x20]
        0x000004d2:    9804        ..      LDR      r0,[sp,#0x10]
        0x000004d4:    4286        .B      CMP      r6,r0
        0x000004d6:    dbf3        ..      BLT      0x4c0 ; _printf_int_common + 68
        0x000004d8:    7820         x      LDRB     r0,[r4,#0]
        0x000004da:    06c0        ..      LSLS     r0,r0,#27
        0x000004dc:    d50a        ..      BPL      0x4f4 ; _printf_int_common + 120
        0x000004de:    4620         F      MOV      r0,r4
        0x000004e0:    46c0        .F      MOV      r8,r8
        0x000004e2:    46c0        .F      MOV      r8,r8
        0x000004e4:    e006        ..      B        0x4f4 ; _printf_int_common + 120
        0x000004e6:    6862        bh      LDR      r2,[r4,#4]
        0x000004e8:    68a1        .h      LDR      r1,[r4,#8]
        0x000004ea:    2030        0       MOVS     r0,#0x30
        0x000004ec:    4790        .G      BLX      r2
        0x000004ee:    6a20         j      LDR      r0,[r4,#0x20]
        0x000004f0:    1c40        @.      ADDS     r0,r0,#1
        0x000004f2:    6220         b      STR      r0,[r4,#0x20]
        0x000004f4:    4638        8F      MOV      r0,r7
        0x000004f6:    1e7f        ..      SUBS     r7,r7,#1
        0x000004f8:    2800        .(      CMP      r0,#0
        0x000004fa:    dcf4        ..      BGT      0x4e6 ; _printf_int_common + 106
        0x000004fc:    e007        ..      B        0x50e ; _printf_int_common + 146
        0x000004fe:    9800        ..      LDR      r0,[sp,#0]
        0x00000500:    6862        bh      LDR      r2,[r4,#4]
        0x00000502:    68a1        .h      LDR      r1,[r4,#8]
        0x00000504:    5d40        @]      LDRB     r0,[r0,r5]
        0x00000506:    4790        .G      BLX      r2
        0x00000508:    6a20         j      LDR      r0,[r4,#0x20]
        0x0000050a:    1c40        @.      ADDS     r0,r0,#1
        0x0000050c:    6220         b      STR      r0,[r4,#0x20]
        0x0000050e:    4628        (F      MOV      r0,r5
        0x00000510:    1e6d        m.      SUBS     r5,r5,#1
        0x00000512:    2800        .(      CMP      r0,#0
        0x00000514:    dcf3        ..      BGT      0x4fe ; _printf_int_common + 130
        0x00000516:    4620         F      MOV      r0,r4
        0x00000518:    46c0        .F      MOV      r8,r8
        0x0000051a:    46c0        .F      MOV      r8,r8
        0x0000051c:    7820         x      LDRB     r0,[r4,#0]
        0x0000051e:    0600        ..      LSLS     r0,r0,#24
        0x00000520:    d502        ..      BPL      0x528 ; _printf_int_common + 172
        0x00000522:    2002        .       MOVS     r0,#2
        0x00000524:    b005        ..      ADD      sp,sp,#0x14
        0x00000526:    bdf0        ..      POP      {r4-r7,pc}
        0x00000528:    2001        .       MOVS     r0,#1
        0x0000052a:    e7fb        ..      B        0x524 ; _printf_int_common + 168
    .text
    _printf_input_char
        0x0000052c:    6901        .i      LDR      r1,[r0,#0x10]
        0x0000052e:    1c4a        J.      ADDS     r2,r1,#1
        0x00000530:    6102        .a      STR      r2,[r0,#0x10]
        0x00000532:    7808        .x      LDRB     r0,[r1,#0]
        0x00000534:    4770        pG      BX       lr
    _printf_char_common
        0x00000536:    b500        ..      PUSH     {lr}
        0x00000538:    b08f        ..      SUB      sp,sp,#0x3c
        0x0000053a:    9102        ..      STR      r1,[sp,#8]
        0x0000053c:    2100        .!      MOVS     r1,#0
        0x0000053e:    9105        ..      STR      r1,[sp,#0x14]
        0x00000540:    4905        .I      LDR      r1,[pc,#20] ; [0x558] = 0xffffffe5
        0x00000542:    9301        ..      STR      r3,[sp,#4]
        0x00000544:    4479        yD      ADD      r1,r1,pc
        0x00000546:    9103        ..      STR      r1,[sp,#0xc]
        0x00000548:    4611        .F      MOV      r1,r2
        0x0000054a:    9004        ..      STR      r0,[sp,#0x10]
        0x0000054c:    4668        hF      MOV      r0,sp
        0x0000054e:    f7fffe57    ..W.    BL       __printf ; 0x200
        0x00000552:    b00f        ..      ADD      sp,sp,#0x3c
        0x00000554:    bd00        ..      POP      {pc}
    $d
        0x00000556:    0000        ..      DCW    0
        0x00000558:    ffffffe5    ....    DCD    4294967269
    $t
    .text
    _sputc
        0x0000055c:    680a        .h      LDR      r2,[r1,#0]
        0x0000055e:    7010        .p      STRB     r0,[r2,#0]
        0x00000560:    1c52        R.      ADDS     r2,r2,#1
        0x00000562:    600a        .`      STR      r2,[r1,#0]
        0x00000564:    4770        pG      BX       lr
    .text
    __rt_udiv10
        0x00000566:    4601        .F      MOV      r1,r0
        0x00000568:    0880        ..      LSRS     r0,r0,#2
        0x0000056a:    1a08        ..      SUBS     r0,r1,r0
        0x0000056c:    0902        ..      LSRS     r2,r0,#4
        0x0000056e:    1810        ..      ADDS     r0,r2,r0
        0x00000570:    0a02        ..      LSRS     r2,r0,#8
        0x00000572:    1810        ..      ADDS     r0,r2,r0
        0x00000574:    0c02        ..      LSRS     r2,r0,#16
        0x00000576:    1810        ..      ADDS     r0,r2,r0
        0x00000578:    08c0        ..      LSRS     r0,r0,#3
        0x0000057a:    0082        ..      LSLS     r2,r0,#2
        0x0000057c:    1812        ..      ADDS     r2,r2,r0
        0x0000057e:    0052        R.      LSLS     r2,r2,#1
        0x00000580:    1a89        ..      SUBS     r1,r1,r2
        0x00000582:    e001        ..      B        0x588 ; __rt_udiv10 + 34
        0x00000584:    1c40        @.      ADDS     r0,r0,#1
        0x00000586:    390a        .9      SUBS     r1,r1,#0xa
        0x00000588:    290a        .)      CMP      r1,#0xa
        0x0000058a:    d2fb        ..      BCS      0x584 ; __rt_udiv10 + 30
        0x0000058c:    4770        pG      BX       lr
    .text
    __user_setup_stackheap
        0x0000058e:    4675        uF      MOV      r5,lr
        0x00000590:    f000f824    ..$.    BL       __user_libspace ; 0x5dc
        0x00000594:    46ae        .F      MOV      lr,r5
        0x00000596:    0005        ..      MOVS     r5,r0
        0x00000598:    4669        iF      MOV      r1,sp
        0x0000059a:    4653        SF      MOV      r3,r10
        0x0000059c:    08c0        ..      LSRS     r0,r0,#3
        0x0000059e:    00c0        ..      LSLS     r0,r0,#3
        0x000005a0:    4685        .F      MOV      sp,r0
        0x000005a2:    b018        ..      ADD      sp,sp,#0x60
        0x000005a4:    b520         .      PUSH     {r5,lr}
        0x000005a6:    f7fffdfb    ....    BL       __user_initial_stackheap ; 0x1a0
        0x000005aa:    bc60        `.      POP      {r5,r6}
        0x000005ac:    2700        .'      MOVS     r7,#0
        0x000005ae:    0849        I.      LSRS     r1,r1,#1
        0x000005b0:    46b6        .F      MOV      lr,r6
        0x000005b2:    2600        .&      MOVS     r6,#0
        0x000005b4:    c5c0        ..      STM      r5!,{r6,r7}
        0x000005b6:    c5c0        ..      STM      r5!,{r6,r7}
        0x000005b8:    c5c0        ..      STM      r5!,{r6,r7}
        0x000005ba:    c5c0        ..      STM      r5!,{r6,r7}
        0x000005bc:    c5c0        ..      STM      r5!,{r6,r7}
        0x000005be:    c5c0        ..      STM      r5!,{r6,r7}
        0x000005c0:    c5c0        ..      STM      r5!,{r6,r7}
        0x000005c2:    c5c0        ..      STM      r5!,{r6,r7}
        0x000005c4:    3d40        @=      SUBS     r5,r5,#0x40
        0x000005c6:    0049        I.      LSLS     r1,r1,#1
        0x000005c8:    468d        .F      MOV      sp,r1
        0x000005ca:    4770        pG      BX       lr
    .text
    exit
        0x000005cc:    b510        ..      PUSH     {r4,lr}
        0x000005ce:    4604        .F      MOV      r4,r0
        0x000005d0:    46c0        .F      MOV      r8,r8
        0x000005d2:    46c0        .F      MOV      r8,r8
        0x000005d4:    4620         F      MOV      r0,r4
        0x000005d6:    f7fffdc6    ....    BL       __rt_exit ; 0x166
        0x000005da:    bd10        ..      POP      {r4,pc}
    .text
    __user_libspace
    __user_perproc_libspace
    __user_perthread_libspace
        0x000005dc:    4800        .H      LDR      r0,[pc,#0] ; [0x5e0] = 0x20000c74
        0x000005de:    4770        pG      BX       lr
    $d
        0x000005e0:    20000c74    t..     DCD    536874100
    $t
    .text
    _sys_exit
        0x000005e4:    4901        .I      LDR      r1,[pc,#4] ; [0x5ec] = 0x20026
        0x000005e6:    2018        .       MOVS     r0,#0x18
        0x000005e8:    beab        ..      BKPT     #0xab
        0x000005ea:    e7fe        ..      B        0x5ea ; _sys_exit + 6
    $d
        0x000005ec:    00020026    &...    DCD    131110
    $t
    .text
    __I$use$semihosting
    __use_no_semihosting_swi
        0x000005f0:    4770        pG      BX       lr
    .text
    __semihosting_library_function
        0x000005f2:    0000        ..      MOVS     r0,r0
    i.BOD_IRQHandler
    BOD_IRQHandler
        0x000005f4:    b510        ..      PUSH     {r4,lr}
        0x000005f6:    2005        .       MOVS     r0,#5
        0x000005f8:    0700        ..      LSLS     r0,r0,#28
        0x000005fa:    6980        .i      LDR      r0,[r0,#0x18]
        0x000005fc:    2110        .!      MOVS     r1,#0x10
        0x000005fe:    4388        .C      BICS     r0,r0,r1
        0x00000600:    3010        .0      ADDS     r0,r0,#0x10
        0x00000602:    2105        .!      MOVS     r1,#5
        0x00000604:    0709        ..      LSLS     r1,r1,#28
        0x00000606:    6188        .a      STR      r0,[r1,#0x18]
        0x00000608:    4803        .H      LDR      r0,[pc,#12] ; [0x618] = 0x2000080c
        0x0000060a:    6800        .h      LDR      r0,[r0,#0]
        0x0000060c:    2800        .(      CMP      r0,#0
        0x0000060e:    d002        ..      BEQ      0x616 ; BOD_IRQHandler + 34
        0x00000610:    4801        .H      LDR      r0,[pc,#4] ; [0x618] = 0x2000080c
        0x00000612:    6800        .h      LDR      r0,[r0,#0]
        0x00000614:    4780        .G      BLX      r0
        0x00000616:    bd10        ..      POP      {r4,pc}
    $d
        0x00000618:    2000080c    ...     DCD    536872972
    $t
    i.DrvGPIO_ClrBit
    DrvGPIO_ClrBit
        0x0000061c:    b510        ..      PUSH     {r4,lr}
        0x0000061e:    4603        .F      MOV      r3,r0
        0x00000620:    2900        .)      CMP      r1,#0
        0x00000622:    db01        ..      BLT      0x628 ; DrvGPIO_ClrBit + 12
        0x00000624:    2910        .)      CMP      r1,#0x10
        0x00000626:    dd01        ..      BLE      0x62c ; DrvGPIO_ClrBit + 16
        0x00000628:    4805        .H      LDR      r0,[pc,#20] ; [0x640] = 0xffff8901
        0x0000062a:    bd10        ..      POP      {r4,pc}
        0x0000062c:    0198        ..      LSLS     r0,r3,#6
        0x0000062e:    4c05        .L      LDR      r4,[pc,#20] ; [0x644] = 0x50004000
        0x00000630:    1902        ..      ADDS     r2,r0,r4
        0x00000632:    6890        .h      LDR      r0,[r2,#8]
        0x00000634:    2401        .$      MOVS     r4,#1
        0x00000636:    408c        .@      LSLS     r4,r4,r1
        0x00000638:    43a0        .C      BICS     r0,r0,r4
        0x0000063a:    6090        .`      STR      r0,[r2,#8]
        0x0000063c:    2000        .       MOVS     r0,#0
        0x0000063e:    e7f4        ..      B        0x62a ; DrvGPIO_ClrBit + 14
    $d
        0x00000640:    ffff8901    ....    DCD    4294936833
        0x00000644:    50004000    .@.P    DCD    1342193664
    $t
    i.DrvGPIO_GetBit
    DrvGPIO_GetBit
        0x00000648:    b508        ..      PUSH     {r3,lr}
        0x0000064a:    4602        .F      MOV      r2,r0
        0x0000064c:    2900        .)      CMP      r1,#0
        0x0000064e:    db01        ..      BLT      0x654 ; DrvGPIO_GetBit + 12
        0x00000650:    2910        .)      CMP      r1,#0x10
        0x00000652:    dd01        ..      BLE      0x658 ; DrvGPIO_GetBit + 16
        0x00000654:    4805        .H      LDR      r0,[pc,#20] ; [0x66c] = 0xffff8901
        0x00000656:    bd08        ..      POP      {r3,pc}
        0x00000658:    0190        ..      LSLS     r0,r2,#6
        0x0000065a:    4b05        .K      LDR      r3,[pc,#20] ; [0x670] = 0x50004010
        0x0000065c:    18c0        ..      ADDS     r0,r0,r3
        0x0000065e:    9000        ..      STR      r0,[sp,#0]
        0x00000660:    9800        ..      LDR      r0,[sp,#0]
        0x00000662:    6800        .h      LDR      r0,[r0,#0]
        0x00000664:    40c8        .@      LSRS     r0,r0,r1
        0x00000666:    07c0        ..      LSLS     r0,r0,#31
        0x00000668:    0fc0        ..      LSRS     r0,r0,#31
        0x0000066a:    e7f4        ..      B        0x656 ; DrvGPIO_GetBit + 14
    $d
        0x0000066c:    ffff8901    ....    DCD    4294936833
        0x00000670:    50004010    .@.P    DCD    1342193680
    $t
    i.DrvGPIO_InitFunction
    DrvGPIO_InitFunction
        0x00000674:    b510        ..      PUSH     {r4,lr}
        0x00000676:    4601        .F      MOV      r1,r0
        0x00000678:    000b        ..      MOVS     r3,r1
        0x0000067a:    f001fa20    .. .    BL       __ARM_common_switch8 ; 0x1abe
    $d
        0x0000067e:    203e        >       DCW    8254
        0x00000680:    5c4b412a    *AK\    DCD    1548435754
        0x00000684:    947e7d74    t}~.    DCD    2491317620
        0x00000688:    eff1b4a4    ....    DCD    4025595044
        0x0000068c:    ebecedee    ....    DCD    3958173166
        0x00000690:    e7e8e9ea    ....    DCD    3890801130
        0x00000694:    e3e4e5e6    ....    DCD    3823429094
        0x00000698:    dfe0e1e2    ....    DCD    3756057058
        0x0000069c:    dbdcddde    ....    DCD    3688685022
        0x000006a0:    d7d8d9da    ....    DCD    3621312986
        0x000006a4:    d3d4d5d6    ....    DCD    3553940950
        0x000006a8:    cfd0d1d2    ....    DCD    3486568914
        0x000006ac:    cbcccdce    ....    DCD    3419196878
        0x000006b0:    c7c8c9ca    ....    DCD    3351824842
        0x000006b4:    c3c4c5c6    ....    DCD    3284452806
        0x000006b8:    bfc0c1c2    ....    DCD    3217080770
        0x000006bc:    bdbe        ..      DCW    48574
    $t
        0x000006be:    2000        .       MOVS     r0,#0
        0x000006c0:    2305        .#      MOVS     r3,#5
        0x000006c2:    071b        ..      LSLS     r3,r3,#28
        0x000006c4:    6318        .c      STR      r0,[r3,#0x30]
        0x000006c6:    6358        Xc      STR      r0,[r3,#0x34]
        0x000006c8:    6398        .c      STR      r0,[r3,#0x38]
        0x000006ca:    63d8        .c      STR      r0,[r3,#0x3c]
        0x000006cc:    4bfa        .K      LDR      r3,[pc,#1000] ; [0xab8] = 0x50000040
        0x000006ce:    6018        .`      STR      r0,[r3,#0]
        0x000006d0:    e371        q.      B        0xdb6 ; DrvGPIO_InitFunction + 1858
        0x000006d2:    2005        .       MOVS     r0,#5
        0x000006d4:    0700        ..      LSLS     r0,r0,#28
        0x000006d6:    6b40        @k      LDR      r0,[r0,#0x34]
        0x000006d8:    2301        .#      MOVS     r3,#1
        0x000006da:    031b        ..      LSLS     r3,r3,#12
        0x000006dc:    4318        .C      ORRS     r0,r0,r3
        0x000006de:    2305        .#      MOVS     r3,#5
        0x000006e0:    071b        ..      LSLS     r3,r3,#28
        0x000006e2:    6358        Xc      STR      r0,[r3,#0x34]
        0x000006e4:    48f4        .H      LDR      r0,[pc,#976] ; [0xab8] = 0x50000040
        0x000006e6:    6900        .i      LDR      r0,[r0,#0x10]
        0x000006e8:    2301        .#      MOVS     r3,#1
        0x000006ea:    029b        ..      LSLS     r3,r3,#10
        0x000006ec:    4318        .C      ORRS     r0,r0,r3
        0x000006ee:    4bf2        .K      LDR      r3,[pc,#968] ; [0xab8] = 0x50000040
        0x000006f0:    6118        .a      STR      r0,[r3,#0x10]
        0x000006f2:    4618        .F      MOV      r0,r3
        0x000006f4:    6900        .i      LDR      r0,[r0,#0x10]
        0x000006f6:    015b        [.      LSLS     r3,r3,#5
        0x000006f8:    4398        .C      BICS     r0,r0,r3
        0x000006fa:    4bef        .K      LDR      r3,[pc,#956] ; [0xab8] = 0x50000040
        0x000006fc:    6118        .a      STR      r0,[r3,#0x10]
        0x000006fe:    e35a        Z.      B        0xdb6 ; DrvGPIO_InitFunction + 1858
        0x00000700:    2005        .       MOVS     r0,#5
        0x00000702:    0700        ..      LSLS     r0,r0,#28
        0x00000704:    6b00        .k      LDR      r0,[r0,#0x30]
        0x00000706:    2303        .#      MOVS     r3,#3
        0x00000708:    021b        ..      LSLS     r3,r3,#8
        0x0000070a:    4318        .C      ORRS     r0,r0,r3
        0x0000070c:    2305        .#      MOVS     r3,#5
        0x0000070e:    071b        ..      LSLS     r3,r3,#28
        0x00000710:    6318        .c      STR      r0,[r3,#0x30]
        0x00000712:    e350        P.      B        0xdb6 ; DrvGPIO_InitFunction + 1858
        0x00000714:    2005        .       MOVS     r0,#5
        0x00000716:    0700        ..      LSLS     r0,r0,#28
        0x00000718:    6b00        .k      LDR      r0,[r0,#0x30]
        0x0000071a:    2303        .#      MOVS     r3,#3
        0x0000071c:    029b        ..      LSLS     r3,r3,#10
        0x0000071e:    4318        .C      ORRS     r0,r0,r3
        0x00000720:    2305        .#      MOVS     r3,#5
        0x00000722:    071b        ..      LSLS     r3,r3,#28
        0x00000724:    6318        .c      STR      r0,[r3,#0x30]
        0x00000726:    48e4        .H      LDR      r0,[pc,#912] ; [0xab8] = 0x50000040
        0x00000728:    6900        .i      LDR      r0,[r0,#0x10]
        0x0000072a:    2301        .#      MOVS     r3,#1
        0x0000072c:    02db        ..      LSLS     r3,r3,#11
        0x0000072e:    4398        .C      BICS     r0,r0,r3
        0x00000730:    4be1        .K      LDR      r3,[pc,#900] ; [0xab8] = 0x50000040
        0x00000732:    6118        .a      STR      r0,[r3,#0x10]
        0x00000734:    e33f        ?.      B        0xdb6 ; DrvGPIO_InitFunction + 1858
        0x00000736:    2005        .       MOVS     r0,#5
        0x00000738:    0700        ..      LSLS     r0,r0,#28
        0x0000073a:    6b80        .k      LDR      r0,[r0,#0x38]
        0x0000073c:    230f        .#      MOVS     r3,#0xf
        0x0000073e:    4318        .C      ORRS     r0,r0,r3
        0x00000740:    2305        .#      MOVS     r3,#5
        0x00000742:    071b        ..      LSLS     r3,r3,#28
        0x00000744:    6398        .c      STR      r0,[r3,#0x38]
        0x00000746:    4618        .F      MOV      r0,r3
        0x00000748:    6b00        .k      LDR      r0,[r0,#0x30]
        0x0000074a:    2301        .#      MOVS     r3,#1
        0x0000074c:    03db        ..      LSLS     r3,r3,#15
        0x0000074e:    4318        .C      ORRS     r0,r0,r3
        0x00000750:    2305        .#      MOVS     r3,#5
        0x00000752:    071b        ..      LSLS     r3,r3,#28
        0x00000754:    6318        .c      STR      r0,[r3,#0x30]
        0x00000756:    48d8        .H      LDR      r0,[pc,#864] ; [0xab8] = 0x50000040
        0x00000758:    6900        .i      LDR      r0,[r0,#0x10]
        0x0000075a:    231f        .#      MOVS     r3,#0x1f
        0x0000075c:    015b        [.      LSLS     r3,r3,#5
        0x0000075e:    4318        .C      ORRS     r0,r0,r3
        0x00000760:    4bd5        .K      LDR      r3,[pc,#852] ; [0xab8] = 0x50000040
        0x00000762:    6118        .a      STR      r0,[r3,#0x10]
        0x00000764:    e327        '.      B        0xdb6 ; DrvGPIO_InitFunction + 1858
        0x00000766:    2005        .       MOVS     r0,#5
        0x00000768:    0700        ..      LSLS     r0,r0,#28
        0x0000076a:    6bc0        .k      LDR      r0,[r0,#0x3c]
        0x0000076c:    23c0        .#      MOVS     r3,#0xc0
        0x0000076e:    4318        .C      ORRS     r0,r0,r3
        0x00000770:    2305        .#      MOVS     r3,#5
        0x00000772:    071b        ..      LSLS     r3,r3,#28
        0x00000774:    63d8        .c      STR      r0,[r3,#0x3c]
        0x00000776:    e31e        ..      B        0xdb6 ; DrvGPIO_InitFunction + 1858
        0x00000778:    bf00        ..      NOP      
        0x0000077a:    2906        .)      CMP      r1,#6
        0x0000077c:    d101        ..      BNE      0x782 ; DrvGPIO_InitFunction + 270
        0x0000077e:    2206        ."      MOVS     r2,#6
        0x00000780:    e000        ..      B        0x784 ; DrvGPIO_InitFunction + 272
        0x00000782:    220e        ."      MOVS     r2,#0xe
        0x00000784:    2005        .       MOVS     r0,#5
        0x00000786:    0700        ..      LSLS     r0,r0,#28
        0x00000788:    6b80        .k      LDR      r0,[r0,#0x38]
        0x0000078a:    2303        .#      MOVS     r3,#3
        0x0000078c:    4093        .@      LSLS     r3,r3,r2
        0x0000078e:    4318        .C      ORRS     r0,r0,r3
        0x00000790:    2305        .#      MOVS     r3,#5
        0x00000792:    071b        ..      LSLS     r3,r3,#28
        0x00000794:    6398        .c      STR      r0,[r3,#0x38]
        0x00000796:    48c8        .H      LDR      r0,[pc,#800] ; [0xab8] = 0x50000040
        0x00000798:    6900        .i      LDR      r0,[r0,#0x10]
        0x0000079a:    2301        .#      MOVS     r3,#1
        0x0000079c:    02db        ..      LSLS     r3,r3,#11
        0x0000079e:    4398        .C      BICS     r0,r0,r3
        0x000007a0:    4bc5        .K      LDR      r3,[pc,#788] ; [0xab8] = 0x50000040
        0x000007a2:    6118        .a      STR      r0,[r3,#0x10]
        0x000007a4:    e307        ..      B        0xdb6 ; DrvGPIO_InitFunction + 1858
        0x000007a6:    2005        .       MOVS     r0,#5
        0x000007a8:    0700        ..      LSLS     r0,r0,#28
        0x000007aa:    6b80        .k      LDR      r0,[r0,#0x38]
        0x000007ac:    230f        .#      MOVS     r3,#0xf
        0x000007ae:    4318        .C      ORRS     r0,r0,r3
        0x000007b0:    2305        .#      MOVS     r3,#5
        0x000007b2:    071b        ..      LSLS     r3,r3,#28
        0x000007b4:    6398        .c      STR      r0,[r3,#0x38]
        0x000007b6:    48c0        .H      LDR      r0,[pc,#768] ; [0xab8] = 0x50000040
        0x000007b8:    6900        .i      LDR      r0,[r0,#0x10]
        0x000007ba:    23ff        .#      MOVS     r3,#0xff
        0x000007bc:    33e1        .3      ADDS     r3,r3,#0xe1
        0x000007be:    4398        .C      BICS     r0,r0,r3
        0x000007c0:    4bbd        .K      LDR      r3,[pc,#756] ; [0xab8] = 0x50000040
        0x000007c2:    6118        .a      STR      r0,[r3,#0x10]
        0x000007c4:    e2f7        ..      B        0xdb6 ; DrvGPIO_InitFunction + 1858
        0x000007c6:    2005        .       MOVS     r0,#5
        0x000007c8:    0700        ..      LSLS     r0,r0,#28
        0x000007ca:    6b40        @k      LDR      r0,[r0,#0x34]
        0x000007cc:    2301        .#      MOVS     r3,#1
        0x000007ce:    029b        ..      LSLS     r3,r3,#10
        0x000007d0:    4318        .C      ORRS     r0,r0,r3
        0x000007d2:    2305        .#      MOVS     r3,#5
        0x000007d4:    071b        ..      LSLS     r3,r3,#28
        0x000007d6:    6358        Xc      STR      r0,[r3,#0x34]
        0x000007d8:    48b7        .H      LDR      r0,[pc,#732] ; [0xab8] = 0x50000040
        0x000007da:    6900        .i      LDR      r0,[r0,#0x10]
        0x000007dc:    2301        .#      MOVS     r3,#1
        0x000007de:    4318        .C      ORRS     r0,r0,r3
        0x000007e0:    4bb5        .K      LDR      r3,[pc,#724] ; [0xab8] = 0x50000040
        0x000007e2:    6118        .a      STR      r0,[r3,#0x10]
        0x000007e4:    e2e7        ..      B        0xdb6 ; DrvGPIO_InitFunction + 1858
        0x000007e6:    2005        .       MOVS     r0,#5
        0x000007e8:    0700        ..      LSLS     r0,r0,#28
        0x000007ea:    6b80        .k      LDR      r0,[r0,#0x38]
        0x000007ec:    2330        0#      MOVS     r3,#0x30
        0x000007ee:    4318        .C      ORRS     r0,r0,r3
        0x000007f0:    2305        .#      MOVS     r3,#5
        0x000007f2:    071b        ..      LSLS     r3,r3,#28
        0x000007f4:    6398        .c      STR      r0,[r3,#0x38]
        0x000007f6:    e2de        ..      B        0xdb6 ; DrvGPIO_InitFunction + 1858
        0x000007f8:    e2db        ..      B        0xdb2 ; DrvGPIO_InitFunction + 1854
        0x000007fa:    e264        d.      B        0xcc6 ; DrvGPIO_InitFunction + 1618
        0x000007fc:    e282        ..      B        0xd04 ; DrvGPIO_InitFunction + 1680
        0x000007fe:    e248        H.      B        0xc92 ; DrvGPIO_InitFunction + 1566
        0x00000800:    e246        F.      B        0xc90 ; DrvGPIO_InitFunction + 1564
        0x00000802:    e213        ..      B        0xc2c ; DrvGPIO_InitFunction + 1464
        0x00000804:    e211        ..      B        0xc2a ; DrvGPIO_InitFunction + 1462
        0x00000806:    e1d9        ..      B        0xbbc ; DrvGPIO_InitFunction + 1352
        0x00000808:    e1d7        ..      B        0xbba ; DrvGPIO_InitFunction + 1350
        0x0000080a:    e1b7        ..      B        0xb7c ; DrvGPIO_InitFunction + 1288
        0x0000080c:    e1b5        ..      B        0xb7a ; DrvGPIO_InitFunction + 1286
        0x0000080e:    e241        A.      B        0xc94 ; DrvGPIO_InitFunction + 1568
        0x00000810:    e20d        ..      B        0xc2e ; DrvGPIO_InitFunction + 1466
        0x00000812:    e1d4        ..      B        0xbbe ; DrvGPIO_InitFunction + 1354
        0x00000814:    e1b3        ..      B        0xb7e ; DrvGPIO_InitFunction + 1290
        0x00000816:    e1a6        ..      B        0xb66 ; DrvGPIO_InitFunction + 1266
        0x00000818:    e165        e.      B        0xae6 ; DrvGPIO_InitFunction + 1138
        0x0000081a:    e163        c.      B        0xae4 ; DrvGPIO_InitFunction + 1136
        0x0000081c:    e161        a.      B        0xae2 ; DrvGPIO_InitFunction + 1134
        0x0000081e:    e15f        _.      B        0xae0 ; DrvGPIO_InitFunction + 1132
        0x00000820:    e15d        ].      B        0xade ; DrvGPIO_InitFunction + 1130
        0x00000822:    e15b        [.      B        0xadc ; DrvGPIO_InitFunction + 1128
        0x00000824:    e14a        J.      B        0xabc ; DrvGPIO_InitFunction + 1096
        0x00000826:    e137        7.      B        0xa98 ; DrvGPIO_InitFunction + 1060
        0x00000828:    e129        ).      B        0xa7e ; DrvGPIO_InitFunction + 1034
        0x0000082a:    e117        ..      B        0xa5c ; DrvGPIO_InitFunction + 1000
        0x0000082c:    e106        ..      B        0xa3c ; DrvGPIO_InitFunction + 968
        0x0000082e:    e0f5        ..      B        0xa1c ; DrvGPIO_InitFunction + 936
        0x00000830:    e0e4        ..      B        0x9fc ; DrvGPIO_InitFunction + 904
        0x00000832:    e0d9        ..      B        0x9e8 ; DrvGPIO_InitFunction + 884
        0x00000834:    e0cc        ..      B        0x9d0 ; DrvGPIO_InitFunction + 860
        0x00000836:    e0c4        ..      B        0x9c2 ; DrvGPIO_InitFunction + 846
        0x00000838:    e0a3        ..      B        0x982 ; DrvGPIO_InitFunction + 782
        0x0000083a:    e0ae        ..      B        0x99a ; DrvGPIO_InitFunction + 806
        0x0000083c:    e0ac        ..      B        0x998 ; DrvGPIO_InitFunction + 804
        0x0000083e:    e0aa        ..      B        0x996 ; DrvGPIO_InitFunction + 802
        0x00000840:    e0a8        ..      B        0x994 ; DrvGPIO_InitFunction + 800
        0x00000842:    e0a6        ..      B        0x992 ; DrvGPIO_InitFunction + 798
        0x00000844:    e0a4        ..      B        0x990 ; DrvGPIO_InitFunction + 796
        0x00000846:    e0b0        ..      B        0x9aa ; DrvGPIO_InitFunction + 822
        0x00000848:    e092        ..      B        0x970 ; DrvGPIO_InitFunction + 764
        0x0000084a:    e088        ..      B        0x95e ; DrvGPIO_InitFunction + 746
        0x0000084c:    e07e        ~.      B        0x94c ; DrvGPIO_InitFunction + 728
        0x0000084e:    e073        s.      B        0x938 ; DrvGPIO_InitFunction + 708
        0x00000850:    e062        b.      B        0x918 ; DrvGPIO_InitFunction + 676
        0x00000852:    e057        W.      B        0x904 ; DrvGPIO_InitFunction + 656
        0x00000854:    e04d        M.      B        0x8f2 ; DrvGPIO_InitFunction + 638
        0x00000856:    e037        7.      B        0x8c8 ; DrvGPIO_InitFunction + 596
        0x00000858:    e02d        -.      B        0x8b6 ; DrvGPIO_InitFunction + 578
        0x0000085a:    e022        ".      B        0x8a2 ; DrvGPIO_InitFunction + 558
        0x0000085c:    e011        ..      B        0x882 ; DrvGPIO_InitFunction + 526
        0x0000085e:    e7ff        ..      B        0x860 ; DrvGPIO_InitFunction + 492
        0x00000860:    2005        .       MOVS     r0,#5
        0x00000862:    0700        ..      LSLS     r0,r0,#28
        0x00000864:    6b80        .k      LDR      r0,[r0,#0x38]
        0x00000866:    230f        .#      MOVS     r3,#0xf
        0x00000868:    021b        ..      LSLS     r3,r3,#8
        0x0000086a:    4318        .C      ORRS     r0,r0,r3
        0x0000086c:    2305        .#      MOVS     r3,#5
        0x0000086e:    071b        ..      LSLS     r3,r3,#28
        0x00000870:    6398        .c      STR      r0,[r3,#0x38]
        0x00000872:    4891        .H      LDR      r0,[pc,#580] ; [0xab8] = 0x50000040
        0x00000874:    6900        .i      LDR      r0,[r0,#0x10]
        0x00000876:    2301        .#      MOVS     r3,#1
        0x00000878:    02db        ..      LSLS     r3,r3,#11
        0x0000087a:    4398        .C      BICS     r0,r0,r3
        0x0000087c:    4b8e        .K      LDR      r3,[pc,#568] ; [0xab8] = 0x50000040
        0x0000087e:    6118        .a      STR      r0,[r3,#0x10]
        0x00000880:    e299        ..      B        0xdb6 ; DrvGPIO_InitFunction + 1858
        0x00000882:    2005        .       MOVS     r0,#5
        0x00000884:    0700        ..      LSLS     r0,r0,#28
        0x00000886:    6b40        @k      LDR      r0,[r0,#0x34]
        0x00000888:    2301        .#      MOVS     r3,#1
        0x0000088a:    025b        [.      LSLS     r3,r3,#9
        0x0000088c:    4318        .C      ORRS     r0,r0,r3
        0x0000088e:    2305        .#      MOVS     r3,#5
        0x00000890:    071b        ..      LSLS     r3,r3,#28
        0x00000892:    6358        Xc      STR      r0,[r3,#0x34]
        0x00000894:    4888        .H      LDR      r0,[pc,#544] ; [0xab8] = 0x50000040
        0x00000896:    6900        .i      LDR      r0,[r0,#0x10]
        0x00000898:    2302        .#      MOVS     r3,#2
        0x0000089a:    4318        .C      ORRS     r0,r0,r3
        0x0000089c:    4b86        .K      LDR      r3,[pc,#536] ; [0xab8] = 0x50000040
        0x0000089e:    6118        .a      STR      r0,[r3,#0x10]
        0x000008a0:    e289        ..      B        0xdb6 ; DrvGPIO_InitFunction + 1858
        0x000008a2:    2005        .       MOVS     r0,#5
        0x000008a4:    0700        ..      LSLS     r0,r0,#28
        0x000008a6:    6b80        .k      LDR      r0,[r0,#0x38]
        0x000008a8:    2303        .#      MOVS     r3,#3
        0x000008aa:    031b        ..      LSLS     r3,r3,#12
        0x000008ac:    4318        .C      ORRS     r0,r0,r3
        0x000008ae:    2305        .#      MOVS     r3,#5
        0x000008b0:    071b        ..      LSLS     r3,r3,#28
        0x000008b2:    6398        .c      STR      r0,[r3,#0x38]
        0x000008b4:    e27f        ..      B        0xdb6 ; DrvGPIO_InitFunction + 1858
        0x000008b6:    2005        .       MOVS     r0,#5
        0x000008b8:    0700        ..      LSLS     r0,r0,#28
        0x000008ba:    6bc0        .k      LDR      r0,[r0,#0x3c]
        0x000008bc:    230f        .#      MOVS     r3,#0xf
        0x000008be:    4318        .C      ORRS     r0,r0,r3
        0x000008c0:    2305        .#      MOVS     r3,#5
        0x000008c2:    071b        ..      LSLS     r3,r3,#28
        0x000008c4:    63d8        .c      STR      r0,[r3,#0x3c]
        0x000008c6:    e276        v.      B        0xdb6 ; DrvGPIO_InitFunction + 1858
        0x000008c8:    2005        .       MOVS     r0,#5
        0x000008ca:    0700        ..      LSLS     r0,r0,#28
        0x000008cc:    6b00        .k      LDR      r0,[r0,#0x30]
        0x000008ce:    2380        .#      MOVS     r3,#0x80
        0x000008d0:    4318        .C      ORRS     r0,r0,r3
        0x000008d2:    2305        .#      MOVS     r3,#5
        0x000008d4:    071b        ..      LSLS     r3,r3,#28
        0x000008d6:    6318        .c      STR      r0,[r3,#0x30]
        0x000008d8:    4877        wH      LDR      r0,[pc,#476] ; [0xab8] = 0x50000040
        0x000008da:    6900        .i      LDR      r0,[r0,#0x10]
        0x000008dc:    2304        .#      MOVS     r3,#4
        0x000008de:    4318        .C      ORRS     r0,r0,r3
        0x000008e0:    4b75        uK      LDR      r3,[pc,#468] ; [0xab8] = 0x50000040
        0x000008e2:    6118        .a      STR      r0,[r3,#0x10]
        0x000008e4:    4618        .F      MOV      r0,r3
        0x000008e6:    6900        .i      LDR      r0,[r0,#0x10]
        0x000008e8:    015b        [.      LSLS     r3,r3,#5
        0x000008ea:    4398        .C      BICS     r0,r0,r3
        0x000008ec:    4b72        rK      LDR      r3,[pc,#456] ; [0xab8] = 0x50000040
        0x000008ee:    6118        .a      STR      r0,[r3,#0x10]
        0x000008f0:    e261        a.      B        0xdb6 ; DrvGPIO_InitFunction + 1858
        0x000008f2:    2005        .       MOVS     r0,#5
        0x000008f4:    0700        ..      LSLS     r0,r0,#28
        0x000008f6:    6bc0        .k      LDR      r0,[r0,#0x3c]
        0x000008f8:    2330        0#      MOVS     r3,#0x30
        0x000008fa:    4318        .C      ORRS     r0,r0,r3
        0x000008fc:    2305        .#      MOVS     r3,#5
        0x000008fe:    071b        ..      LSLS     r3,r3,#28
        0x00000900:    63d8        .c      STR      r0,[r3,#0x3c]
        0x00000902:    e258        X.      B        0xdb6 ; DrvGPIO_InitFunction + 1858
        0x00000904:    2005        .       MOVS     r0,#5
        0x00000906:    0700        ..      LSLS     r0,r0,#28
        0x00000908:    6bc0        .k      LDR      r0,[r0,#0x3c]
        0x0000090a:    230f        .#      MOVS     r3,#0xf
        0x0000090c:    021b        ..      LSLS     r3,r3,#8
        0x0000090e:    4318        .C      ORRS     r0,r0,r3
        0x00000910:    2305        .#      MOVS     r3,#5
        0x00000912:    071b        ..      LSLS     r3,r3,#28
        0x00000914:    63d8        .c      STR      r0,[r3,#0x3c]
        0x00000916:    e24e        N.      B        0xdb6 ; DrvGPIO_InitFunction + 1858
        0x00000918:    2005        .       MOVS     r0,#5
        0x0000091a:    0700        ..      LSLS     r0,r0,#28
        0x0000091c:    6b40        @k      LDR      r0,[r0,#0x34]
        0x0000091e:    2301        .#      MOVS     r3,#1
        0x00000920:    039b        ..      LSLS     r3,r3,#14
        0x00000922:    4318        .C      ORRS     r0,r0,r3
        0x00000924:    2305        .#      MOVS     r3,#5
        0x00000926:    071b        ..      LSLS     r3,r3,#28
        0x00000928:    6358        Xc      STR      r0,[r3,#0x34]
        0x0000092a:    4863        cH      LDR      r0,[pc,#396] ; [0xab8] = 0x50000040
        0x0000092c:    6900        .i      LDR      r0,[r0,#0x10]
        0x0000092e:    2308        .#      MOVS     r3,#8
        0x00000930:    4318        .C      ORRS     r0,r0,r3
        0x00000932:    4b61        aK      LDR      r3,[pc,#388] ; [0xab8] = 0x50000040
        0x00000934:    6118        .a      STR      r0,[r3,#0x10]
        0x00000936:    e23e        >.      B        0xdb6 ; DrvGPIO_InitFunction + 1858
        0x00000938:    2005        .       MOVS     r0,#5
        0x0000093a:    0700        ..      LSLS     r0,r0,#28
        0x0000093c:    6bc0        .k      LDR      r0,[r0,#0x3c]
        0x0000093e:    2303        .#      MOVS     r3,#3
        0x00000940:    031b        ..      LSLS     r3,r3,#12
        0x00000942:    4318        .C      ORRS     r0,r0,r3
        0x00000944:    2305        .#      MOVS     r3,#5
        0x00000946:    071b        ..      LSLS     r3,r3,#28
        0x00000948:    63d8        .c      STR      r0,[r3,#0x3c]
        0x0000094a:    e234        4.      B        0xdb6 ; DrvGPIO_InitFunction + 1858
        0x0000094c:    2005        .       MOVS     r0,#5
        0x0000094e:    0700        ..      LSLS     r0,r0,#28
        0x00000950:    6b80        .k      LDR      r0,[r0,#0x38]
        0x00000952:    230f        .#      MOVS     r3,#0xf
        0x00000954:    4318        .C      ORRS     r0,r0,r3
        0x00000956:    2305        .#      MOVS     r3,#5
        0x00000958:    071b        ..      LSLS     r3,r3,#28
        0x0000095a:    6398        .c      STR      r0,[r3,#0x38]
        0x0000095c:    e22b        +.      B        0xdb6 ; DrvGPIO_InitFunction + 1858
        0x0000095e:    2005        .       MOVS     r0,#5
        0x00000960:    0700        ..      LSLS     r0,r0,#28
        0x00000962:    6bc0        .k      LDR      r0,[r0,#0x3c]
        0x00000964:    2302        .#      MOVS     r3,#2
        0x00000966:    4318        .C      ORRS     r0,r0,r3
        0x00000968:    2305        .#      MOVS     r3,#5
        0x0000096a:    071b        ..      LSLS     r3,r3,#28
        0x0000096c:    63d8        .c      STR      r0,[r3,#0x3c]
        0x0000096e:    e222        ".      B        0xdb6 ; DrvGPIO_InitFunction + 1858
        0x00000970:    2005        .       MOVS     r0,#5
        0x00000972:    0700        ..      LSLS     r0,r0,#28
        0x00000974:    6bc0        .k      LDR      r0,[r0,#0x3c]
        0x00000976:    2304        .#      MOVS     r3,#4
        0x00000978:    4318        .C      ORRS     r0,r0,r3
        0x0000097a:    2305        .#      MOVS     r3,#5
        0x0000097c:    071b        ..      LSLS     r3,r3,#28
        0x0000097e:    63d8        .c      STR      r0,[r3,#0x3c]
        0x00000980:    e219        ..      B        0xdb6 ; DrvGPIO_InitFunction + 1858
        0x00000982:    484d        MH      LDR      r0,[pc,#308] ; [0xab8] = 0x50000040
        0x00000984:    6900        .i      LDR      r0,[r0,#0x10]
        0x00000986:    2304        .#      MOVS     r3,#4
        0x00000988:    4398        .C      BICS     r0,r0,r3
        0x0000098a:    4b4b        KK      LDR      r3,[pc,#300] ; [0xab8] = 0x50000040
        0x0000098c:    6118        .a      STR      r0,[r3,#0x10]
        0x0000098e:    bf00        ..      NOP      
        0x00000990:    bf00        ..      NOP      
        0x00000992:    bf00        ..      NOP      
        0x00000994:    bf00        ..      NOP      
        0x00000996:    bf00        ..      NOP      
        0x00000998:    bf00        ..      NOP      
        0x0000099a:    4847        GH      LDR      r0,[pc,#284] ; [0xab8] = 0x50000040
        0x0000099c:    6900        .i      LDR      r0,[r0,#0x10]
        0x0000099e:    2301        .#      MOVS     r3,#1
        0x000009a0:    02db        ..      LSLS     r3,r3,#11
        0x000009a2:    4398        .C      BICS     r0,r0,r3
        0x000009a4:    4b44        DK      LDR      r3,[pc,#272] ; [0xab8] = 0x50000040
        0x000009a6:    6118        .a      STR      r0,[r3,#0x10]
        0x000009a8:    bf00        ..      NOP      
        0x000009aa:    2005        .       MOVS     r0,#5
        0x000009ac:    0700        ..      LSLS     r0,r0,#28
        0x000009ae:    6b00        .k      LDR      r0,[r0,#0x30]
        0x000009b0:    460b        .F      MOV      r3,r1
        0x000009b2:    3b17        .;      SUBS     r3,r3,#0x17
        0x000009b4:    2401        .$      MOVS     r4,#1
        0x000009b6:    409c        .@      LSLS     r4,r4,r3
        0x000009b8:    4320         C      ORRS     r0,r0,r4
        0x000009ba:    2305        .#      MOVS     r3,#5
        0x000009bc:    071b        ..      LSLS     r3,r3,#28
        0x000009be:    6318        .c      STR      r0,[r3,#0x30]
        0x000009c0:    e1f9        ..      B        0xdb6 ; DrvGPIO_InitFunction + 1858
        0x000009c2:    483d        =H      LDR      r0,[pc,#244] ; [0xab8] = 0x50000040
        0x000009c4:    6900        .i      LDR      r0,[r0,#0x10]
        0x000009c6:    2308        .#      MOVS     r3,#8
        0x000009c8:    4398        .C      BICS     r0,r0,r3
        0x000009ca:    4b3b        ;K      LDR      r3,[pc,#236] ; [0xab8] = 0x50000040
        0x000009cc:    6118        .a      STR      r0,[r3,#0x10]
        0x000009ce:    bf00        ..      NOP      
        0x000009d0:    2005        .       MOVS     r0,#5
        0x000009d2:    0700        ..      LSLS     r0,r0,#28
        0x000009d4:    6b43        Ck      LDR      r3,[r0,#0x34]
        0x000009d6:    4608        .F      MOV      r0,r1
        0x000009d8:    3811        .8      SUBS     r0,r0,#0x11
        0x000009da:    2401        .$      MOVS     r4,#1
        0x000009dc:    4084        .@      LSLS     r4,r4,r0
        0x000009de:    4323        #C      ORRS     r3,r3,r4
        0x000009e0:    2005        .       MOVS     r0,#5
        0x000009e2:    0700        ..      LSLS     r0,r0,#28
        0x000009e4:    6343        Cc      STR      r3,[r0,#0x34]
        0x000009e6:    e1e6        ..      B        0xdb6 ; DrvGPIO_InitFunction + 1858
        0x000009e8:    2005        .       MOVS     r0,#5
        0x000009ea:    0700        ..      LSLS     r0,r0,#28
        0x000009ec:    6b40        @k      LDR      r0,[r0,#0x34]
        0x000009ee:    23ff        .#      MOVS     r3,#0xff
        0x000009f0:    3301        .3      ADDS     r3,#1
        0x000009f2:    4318        .C      ORRS     r0,r0,r3
        0x000009f4:    2305        .#      MOVS     r3,#5
        0x000009f6:    071b        ..      LSLS     r3,r3,#28
        0x000009f8:    6358        Xc      STR      r0,[r3,#0x34]
        0x000009fa:    e1dc        ..      B        0xdb6 ; DrvGPIO_InitFunction + 1858
        0x000009fc:    2005        .       MOVS     r0,#5
        0x000009fe:    0700        ..      LSLS     r0,r0,#28
        0x00000a00:    6b40        @k      LDR      r0,[r0,#0x34]
        0x00000a02:    2301        .#      MOVS     r3,#1
        0x00000a04:    025b        [.      LSLS     r3,r3,#9
        0x00000a06:    4318        .C      ORRS     r0,r0,r3
        0x00000a08:    2305        .#      MOVS     r3,#5
        0x00000a0a:    071b        ..      LSLS     r3,r3,#28
        0x00000a0c:    6358        Xc      STR      r0,[r3,#0x34]
        0x00000a0e:    482a        *H      LDR      r0,[pc,#168] ; [0xab8] = 0x50000040
        0x00000a10:    6900        .i      LDR      r0,[r0,#0x10]
        0x00000a12:    2302        .#      MOVS     r3,#2
        0x00000a14:    4398        .C      BICS     r0,r0,r3
        0x00000a16:    4b28        (K      LDR      r3,[pc,#160] ; [0xab8] = 0x50000040
        0x00000a18:    6118        .a      STR      r0,[r3,#0x10]
        0x00000a1a:    e1cc        ..      B        0xdb6 ; DrvGPIO_InitFunction + 1858
        0x00000a1c:    2005        .       MOVS     r0,#5
        0x00000a1e:    0700        ..      LSLS     r0,r0,#28
        0x00000a20:    6b40        @k      LDR      r0,[r0,#0x34]
        0x00000a22:    2301        .#      MOVS     r3,#1
        0x00000a24:    029b        ..      LSLS     r3,r3,#10
        0x00000a26:    4318        .C      ORRS     r0,r0,r3
        0x00000a28:    2305        .#      MOVS     r3,#5
        0x00000a2a:    071b        ..      LSLS     r3,r3,#28
        0x00000a2c:    6358        Xc      STR      r0,[r3,#0x34]
        0x00000a2e:    4822        "H      LDR      r0,[pc,#136] ; [0xab8] = 0x50000040
        0x00000a30:    6900        .i      LDR      r0,[r0,#0x10]
        0x00000a32:    0840        @.      LSRS     r0,r0,#1
        0x00000a34:    0040        @.      LSLS     r0,r0,#1
        0x00000a36:    4b20         K      LDR      r3,[pc,#128] ; [0xab8] = 0x50000040
        0x00000a38:    6118        .a      STR      r0,[r3,#0x10]
        0x00000a3a:    e1bc        ..      B        0xdb6 ; DrvGPIO_InitFunction + 1858
        0x00000a3c:    2005        .       MOVS     r0,#5
        0x00000a3e:    0700        ..      LSLS     r0,r0,#28
        0x00000a40:    6b40        @k      LDR      r0,[r0,#0x34]
        0x00000a42:    2301        .#      MOVS     r3,#1
        0x00000a44:    02db        ..      LSLS     r3,r3,#11
        0x00000a46:    4318        .C      ORRS     r0,r0,r3
        0x00000a48:    2305        .#      MOVS     r3,#5
        0x00000a4a:    071b        ..      LSLS     r3,r3,#28
        0x00000a4c:    6358        Xc      STR      r0,[r3,#0x34]
        0x00000a4e:    481a        .H      LDR      r0,[pc,#104] ; [0xab8] = 0x50000040
        0x00000a50:    6900        .i      LDR      r0,[r0,#0x10]
        0x00000a52:    2310        .#      MOVS     r3,#0x10
        0x00000a54:    4398        .C      BICS     r0,r0,r3
        0x00000a56:    4b18        .K      LDR      r3,[pc,#96] ; [0xab8] = 0x50000040
        0x00000a58:    6118        .a      STR      r0,[r3,#0x10]
        0x00000a5a:    e1ac        ..      B        0xdb6 ; DrvGPIO_InitFunction + 1858
        0x00000a5c:    2005        .       MOVS     r0,#5
        0x00000a5e:    0700        ..      LSLS     r0,r0,#28
        0x00000a60:    6b40        @k      LDR      r0,[r0,#0x34]
        0x00000a62:    2301        .#      MOVS     r3,#1
        0x00000a64:    03db        ..      LSLS     r3,r3,#15
        0x00000a66:    4318        .C      ORRS     r0,r0,r3
        0x00000a68:    2305        .#      MOVS     r3,#5
        0x00000a6a:    071b        ..      LSLS     r3,r3,#28
        0x00000a6c:    6358        Xc      STR      r0,[r3,#0x34]
        0x00000a6e:    4812        .H      LDR      r0,[pc,#72] ; [0xab8] = 0x50000040
        0x00000a70:    6900        .i      LDR      r0,[r0,#0x10]
        0x00000a72:    2301        .#      MOVS     r3,#1
        0x00000a74:    061b        ..      LSLS     r3,r3,#24
        0x00000a76:    4318        .C      ORRS     r0,r0,r3
        0x00000a78:    4b0f        .K      LDR      r3,[pc,#60] ; [0xab8] = 0x50000040
        0x00000a7a:    6118        .a      STR      r0,[r3,#0x10]
        0x00000a7c:    e19b        ..      B        0xdb6 ; DrvGPIO_InitFunction + 1858
        0x00000a7e:    480e        .H      LDR      r0,[pc,#56] ; [0xab8] = 0x50000040
        0x00000a80:    6800        .h      LDR      r0,[r0,#0]
        0x00000a82:    2320         #      MOVS     r3,#0x20
        0x00000a84:    4318        .C      ORRS     r0,r0,r3
        0x00000a86:    4b0c        .K      LDR      r3,[pc,#48] ; [0xab8] = 0x50000040
        0x00000a88:    6018        .`      STR      r0,[r3,#0]
        0x00000a8a:    4618        .F      MOV      r0,r3
        0x00000a8c:    6900        .i      LDR      r0,[r0,#0x10]
        0x00000a8e:    04db        ..      LSLS     r3,r3,#19
        0x00000a90:    4318        .C      ORRS     r0,r0,r3
        0x00000a92:    4b09        .K      LDR      r3,[pc,#36] ; [0xab8] = 0x50000040
        0x00000a94:    6118        .a      STR      r0,[r3,#0x10]
        0x00000a96:    e18e        ..      B        0xdb6 ; DrvGPIO_InitFunction + 1858
        0x00000a98:    2005        .       MOVS     r0,#5
        0x00000a9a:    0700        ..      LSLS     r0,r0,#28
        0x00000a9c:    6b40        @k      LDR      r0,[r0,#0x34]
        0x00000a9e:    2304        .#      MOVS     r3,#4
        0x00000aa0:    4318        .C      ORRS     r0,r0,r3
        0x00000aa2:    2305        .#      MOVS     r3,#5
        0x00000aa4:    071b        ..      LSLS     r3,r3,#28
        0x00000aa6:    6358        Xc      STR      r0,[r3,#0x34]
        0x00000aa8:    4803        .H      LDR      r0,[pc,#12] ; [0xab8] = 0x50000040
        0x00000aaa:    6900        .i      LDR      r0,[r0,#0x10]
        0x00000aac:    2301        .#      MOVS     r3,#1
        0x00000aae:    069b        ..      LSLS     r3,r3,#26
        0x00000ab0:    4318        .C      ORRS     r0,r0,r3
        0x00000ab2:    4b01        .K      LDR      r3,[pc,#4] ; [0xab8] = 0x50000040
        0x00000ab4:    6118        .a      STR      r0,[r3,#0x10]
        0x00000ab6:    e17e        ~.      B        0xdb6 ; DrvGPIO_InitFunction + 1858
    $d
        0x00000ab8:    50000040    @..P    DCD    1342177344
    $t
        0x00000abc:    2005        .       MOVS     r0,#5
        0x00000abe:    0700        ..      LSLS     r0,r0,#28
        0x00000ac0:    6b40        @k      LDR      r0,[r0,#0x34]
        0x00000ac2:    2308        .#      MOVS     r3,#8
        0x00000ac4:    4318        .C      ORRS     r0,r0,r3
        0x00000ac6:    2305        .#      MOVS     r3,#5
        0x00000ac8:    071b        ..      LSLS     r3,r3,#28
        0x00000aca:    6358        Xc      STR      r0,[r3,#0x34]
        0x00000acc:    48bb        .H      LDR      r0,[pc,#748] ; [0xdbc] = 0x50000040
        0x00000ace:    6900        .i      LDR      r0,[r0,#0x10]
        0x00000ad0:    2301        .#      MOVS     r3,#1
        0x00000ad2:    06db        ..      LSLS     r3,r3,#27
        0x00000ad4:    4318        .C      ORRS     r0,r0,r3
        0x00000ad6:    4bb9        .K      LDR      r3,[pc,#740] ; [0xdbc] = 0x50000040
        0x00000ad8:    6118        .a      STR      r0,[r3,#0x10]
        0x00000ada:    e16c        l.      B        0xdb6 ; DrvGPIO_InitFunction + 1858
        0x00000adc:    bf00        ..      NOP      
        0x00000ade:    bf00        ..      NOP      
        0x00000ae0:    bf00        ..      NOP      
        0x00000ae2:    bf00        ..      NOP      
        0x00000ae4:    bf00        ..      NOP      
        0x00000ae6:    2929        ))      CMP      r1,#0x29
        0x00000ae8:    db03        ..      BLT      0xaf2 ; DrvGPIO_InitFunction + 1150
        0x00000aea:    292b        +)      CMP      r1,#0x2b
        0x00000aec:    dc01        ..      BGT      0xaf2 ; DrvGPIO_InitFunction + 1150
        0x00000aee:    2200        ."      MOVS     r2,#0
        0x00000af0:    e000        ..      B        0xaf4 ; DrvGPIO_InitFunction + 1152
        0x00000af2:    2204        ."      MOVS     r2,#4
        0x00000af4:    2929        ))      CMP      r1,#0x29
        0x00000af6:    d001        ..      BEQ      0xafc ; DrvGPIO_InitFunction + 1160
        0x00000af8:    292c        ,)      CMP      r1,#0x2c
        0x00000afa:    d110        ..      BNE      0xb1e ; DrvGPIO_InitFunction + 1194
        0x00000afc:    2005        .       MOVS     r0,#5
        0x00000afe:    0700        ..      LSLS     r0,r0,#28
        0x00000b00:    6b40        @k      LDR      r0,[r0,#0x34]
        0x00000b02:    230f        .#      MOVS     r3,#0xf
        0x00000b04:    4093        .@      LSLS     r3,r3,r2
        0x00000b06:    4318        .C      ORRS     r0,r0,r3
        0x00000b08:    2305        .#      MOVS     r3,#5
        0x00000b0a:    071b        ..      LSLS     r3,r3,#28
        0x00000b0c:    6358        Xc      STR      r0,[r3,#0x34]
        0x00000b0e:    48ab        .H      LDR      r0,[pc,#684] ; [0xdbc] = 0x50000040
        0x00000b10:    6900        .i      LDR      r0,[r0,#0x10]
        0x00000b12:    2301        .#      MOVS     r3,#1
        0x00000b14:    02db        ..      LSLS     r3,r3,#11
        0x00000b16:    4398        .C      BICS     r0,r0,r3
        0x00000b18:    4ba8        .K      LDR      r3,[pc,#672] ; [0xdbc] = 0x50000040
        0x00000b1a:    6118        .a      STR      r0,[r3,#0x10]
        0x00000b1c:    e022        ".      B        0xb64 ; DrvGPIO_InitFunction + 1264
        0x00000b1e:    292a        *)      CMP      r1,#0x2a
        0x00000b20:    d001        ..      BEQ      0xb26 ; DrvGPIO_InitFunction + 1202
        0x00000b22:    292d        -)      CMP      r1,#0x2d
        0x00000b24:    d109        ..      BNE      0xb3a ; DrvGPIO_InitFunction + 1222
        0x00000b26:    2005        .       MOVS     r0,#5
        0x00000b28:    0700        ..      LSLS     r0,r0,#28
        0x00000b2a:    6b40        @k      LDR      r0,[r0,#0x34]
        0x00000b2c:    2303        .#      MOVS     r3,#3
        0x00000b2e:    4093        .@      LSLS     r3,r3,r2
        0x00000b30:    4318        .C      ORRS     r0,r0,r3
        0x00000b32:    2305        .#      MOVS     r3,#5
        0x00000b34:    071b        ..      LSLS     r3,r3,#28
        0x00000b36:    6358        Xc      STR      r0,[r3,#0x34]
        0x00000b38:    e014        ..      B        0xb64 ; DrvGPIO_InitFunction + 1264
        0x00000b3a:    292b        +)      CMP      r1,#0x2b
        0x00000b3c:    d001        ..      BEQ      0xb42 ; DrvGPIO_InitFunction + 1230
        0x00000b3e:    292e        .)      CMP      r1,#0x2e
        0x00000b40:    d110        ..      BNE      0xb64 ; DrvGPIO_InitFunction + 1264
        0x00000b42:    2005        .       MOVS     r0,#5
        0x00000b44:    0700        ..      LSLS     r0,r0,#28
        0x00000b46:    6b40        @k      LDR      r0,[r0,#0x34]
        0x00000b48:    1c93        ..      ADDS     r3,r2,#2
        0x00000b4a:    2403        .$      MOVS     r4,#3
        0x00000b4c:    409c        .@      LSLS     r4,r4,r3
        0x00000b4e:    4320         C      ORRS     r0,r0,r4
        0x00000b50:    2305        .#      MOVS     r3,#5
        0x00000b52:    071b        ..      LSLS     r3,r3,#28
        0x00000b54:    6358        Xc      STR      r0,[r3,#0x34]
        0x00000b56:    4899        .H      LDR      r0,[pc,#612] ; [0xdbc] = 0x50000040
        0x00000b58:    6900        .i      LDR      r0,[r0,#0x10]
        0x00000b5a:    2301        .#      MOVS     r3,#1
        0x00000b5c:    02db        ..      LSLS     r3,r3,#11
        0x00000b5e:    4398        .C      BICS     r0,r0,r3
        0x00000b60:    4b96        .K      LDR      r3,[pc,#600] ; [0xdbc] = 0x50000040
        0x00000b62:    6118        .a      STR      r0,[r3,#0x10]
        0x00000b64:    e127        '.      B        0xdb6 ; DrvGPIO_InitFunction + 1858
        0x00000b66:    2005        .       MOVS     r0,#5
        0x00000b68:    0700        ..      LSLS     r0,r0,#28
        0x00000b6a:    6bc0        .k      LDR      r0,[r0,#0x3c]
        0x00000b6c:    2303        .#      MOVS     r3,#3
        0x00000b6e:    039b        ..      LSLS     r3,r3,#14
        0x00000b70:    4318        .C      ORRS     r0,r0,r3
        0x00000b72:    2305        .#      MOVS     r3,#5
        0x00000b74:    071b        ..      LSLS     r3,r3,#28
        0x00000b76:    63d8        .c      STR      r0,[r3,#0x3c]
        0x00000b78:    e11d        ..      B        0xdb6 ; DrvGPIO_InitFunction + 1858
        0x00000b7a:    bf00        ..      NOP      
        0x00000b7c:    bf00        ..      NOP      
        0x00000b7e:    2930        0)      CMP      r1,#0x30
        0x00000b80:    d108        ..      BNE      0xb94 ; DrvGPIO_InitFunction + 1312
        0x00000b82:    2005        .       MOVS     r0,#5
        0x00000b84:    0700        ..      LSLS     r0,r0,#28
        0x00000b86:    6b00        .k      LDR      r0,[r0,#0x30]
        0x00000b88:    020b        ..      LSLS     r3,r1,#8
        0x00000b8a:    4318        .C      ORRS     r0,r0,r3
        0x00000b8c:    2305        .#      MOVS     r3,#5
        0x00000b8e:    071b        ..      LSLS     r3,r3,#28
        0x00000b90:    6318        .c      STR      r0,[r3,#0x30]
        0x00000b92:    e00a        ..      B        0xbaa ; DrvGPIO_InitFunction + 1334
        0x00000b94:    2005        .       MOVS     r0,#5
        0x00000b96:    0700        ..      LSLS     r0,r0,#28
        0x00000b98:    6b03        .k      LDR      r3,[r0,#0x30]
        0x00000b9a:    4608        .F      MOV      r0,r1
        0x00000b9c:    3828        (8      SUBS     r0,r0,#0x28
        0x00000b9e:    2401        .$      MOVS     r4,#1
        0x00000ba0:    4084        .@      LSLS     r4,r4,r0
        0x00000ba2:    4323        #C      ORRS     r3,r3,r4
        0x00000ba4:    2005        .       MOVS     r0,#5
        0x00000ba6:    0700        ..      LSLS     r0,r0,#28
        0x00000ba8:    6303        .c      STR      r3,[r0,#0x30]
        0x00000baa:    4884        .H      LDR      r0,[pc,#528] ; [0xdbc] = 0x50000040
        0x00000bac:    6900        .i      LDR      r0,[r0,#0x10]
        0x00000bae:    2301        .#      MOVS     r3,#1
        0x00000bb0:    02db        ..      LSLS     r3,r3,#11
        0x00000bb2:    4398        .C      BICS     r0,r0,r3
        0x00000bb4:    4b81        .K      LDR      r3,[pc,#516] ; [0xdbc] = 0x50000040
        0x00000bb6:    6118        .a      STR      r0,[r3,#0x10]
        0x00000bb8:    e0fd        ..      B        0xdb6 ; DrvGPIO_InitFunction + 1858
        0x00000bba:    bf00        ..      NOP      
        0x00000bbc:    bf00        ..      NOP      
        0x00000bbe:    2931        1)      CMP      r1,#0x31
        0x00000bc0:    d116        ..      BNE      0xbf0 ; DrvGPIO_InitFunction + 1404
        0x00000bc2:    2005        .       MOVS     r0,#5
        0x00000bc4:    0700        ..      LSLS     r0,r0,#28
        0x00000bc6:    6b00        .k      LDR      r0,[r0,#0x30]
        0x00000bc8:    2303        .#      MOVS     r3,#3
        0x00000bca:    039b        ..      LSLS     r3,r3,#14
        0x00000bcc:    4318        .C      ORRS     r0,r0,r3
        0x00000bce:    2305        .#      MOVS     r3,#5
        0x00000bd0:    071b        ..      LSLS     r3,r3,#28
        0x00000bd2:    6318        .c      STR      r0,[r3,#0x30]
        0x00000bd4:    4879        yH      LDR      r0,[pc,#484] ; [0xdbc] = 0x50000040
        0x00000bd6:    6900        .i      LDR      r0,[r0,#0x10]
        0x00000bd8:    2301        .#      MOVS     r3,#1
        0x00000bda:    025b        [.      LSLS     r3,r3,#9
        0x00000bdc:    4398        .C      BICS     r0,r0,r3
        0x00000bde:    4b77        wK      LDR      r3,[pc,#476] ; [0xdbc] = 0x50000040
        0x00000be0:    6118        .a      STR      r0,[r3,#0x10]
        0x00000be2:    4618        .F      MOV      r0,r3
        0x00000be4:    6900        .i      LDR      r0,[r0,#0x10]
        0x00000be6:    015b        [.      LSLS     r3,r3,#5
        0x00000be8:    4398        .C      BICS     r0,r0,r3
        0x00000bea:    4b74        tK      LDR      r3,[pc,#464] ; [0xdbc] = 0x50000040
        0x00000bec:    6118        .a      STR      r0,[r3,#0x10]
        0x00000bee:    e01b        ..      B        0xc28 ; DrvGPIO_InitFunction + 1460
        0x00000bf0:    2005        .       MOVS     r0,#5
        0x00000bf2:    0700        ..      LSLS     r0,r0,#28
        0x00000bf4:    6b03        .k      LDR      r3,[r0,#0x30]
        0x00000bf6:    4608        .F      MOV      r0,r1
        0x00000bf8:    3828        (8      SUBS     r0,r0,#0x28
        0x00000bfa:    2401        .$      MOVS     r4,#1
        0x00000bfc:    4084        .@      LSLS     r4,r4,r0
        0x00000bfe:    4323        #C      ORRS     r3,r3,r4
        0x00000c00:    2005        .       MOVS     r0,#5
        0x00000c02:    0700        ..      LSLS     r0,r0,#28
        0x00000c04:    6303        .c      STR      r3,[r0,#0x30]
        0x00000c06:    2936        6)      CMP      r1,#0x36
        0x00000c08:    d107        ..      BNE      0xc1a ; DrvGPIO_InitFunction + 1446
        0x00000c0a:    486c        lH      LDR      r0,[pc,#432] ; [0xdbc] = 0x50000040
        0x00000c0c:    6900        .i      LDR      r0,[r0,#0x10]
        0x00000c0e:    2301        .#      MOVS     r3,#1
        0x00000c10:    02db        ..      LSLS     r3,r3,#11
        0x00000c12:    4398        .C      BICS     r0,r0,r3
        0x00000c14:    4b69        iK      LDR      r3,[pc,#420] ; [0xdbc] = 0x50000040
        0x00000c16:    6118        .a      STR      r0,[r3,#0x10]
        0x00000c18:    e006        ..      B        0xc28 ; DrvGPIO_InitFunction + 1460
        0x00000c1a:    4868        hH      LDR      r0,[pc,#416] ; [0xdbc] = 0x50000040
        0x00000c1c:    6900        .i      LDR      r0,[r0,#0x10]
        0x00000c1e:    2301        .#      MOVS     r3,#1
        0x00000c20:    025b        [.      LSLS     r3,r3,#9
        0x00000c22:    4398        .C      BICS     r0,r0,r3
        0x00000c24:    4b65        eK      LDR      r3,[pc,#404] ; [0xdbc] = 0x50000040
        0x00000c26:    6118        .a      STR      r0,[r3,#0x10]
        0x00000c28:    e0c5        ..      B        0xdb6 ; DrvGPIO_InitFunction + 1858
        0x00000c2a:    bf00        ..      NOP      
        0x00000c2c:    bf00        ..      NOP      
        0x00000c2e:    2932        2)      CMP      r1,#0x32
        0x00000c30:    d115        ..      BNE      0xc5e ; DrvGPIO_InitFunction + 1514
        0x00000c32:    2005        .       MOVS     r0,#5
        0x00000c34:    0700        ..      LSLS     r0,r0,#28
        0x00000c36:    6b40        @k      LDR      r0,[r0,#0x34]
        0x00000c38:    2301        .#      MOVS     r3,#1
        0x00000c3a:    02db        ..      LSLS     r3,r3,#11
        0x00000c3c:    4318        .C      ORRS     r0,r0,r3
        0x00000c3e:    2305        .#      MOVS     r3,#5
        0x00000c40:    071b        ..      LSLS     r3,r3,#28
        0x00000c42:    6358        Xc      STR      r0,[r3,#0x34]
        0x00000c44:    485d        ]H      LDR      r0,[pc,#372] ; [0xdbc] = 0x50000040
        0x00000c46:    6900        .i      LDR      r0,[r0,#0x10]
        0x00000c48:    2310        .#      MOVS     r3,#0x10
        0x00000c4a:    4318        .C      ORRS     r0,r0,r3
        0x00000c4c:    4b5b        [K      LDR      r3,[pc,#364] ; [0xdbc] = 0x50000040
        0x00000c4e:    6118        .a      STR      r0,[r3,#0x10]
        0x00000c50:    4618        .F      MOV      r0,r3
        0x00000c52:    6800        .h      LDR      r0,[r0,#0]
        0x00000c54:    2320         #      MOVS     r3,#0x20
        0x00000c56:    4318        .C      ORRS     r0,r0,r3
        0x00000c58:    4b58        XK      LDR      r3,[pc,#352] ; [0xdbc] = 0x50000040
        0x00000c5a:    6018        .`      STR      r0,[r3,#0]
        0x00000c5c:    e017        ..      B        0xc8e ; DrvGPIO_InitFunction + 1562
        0x00000c5e:    2938        8)      CMP      r1,#0x38
        0x00000c60:    d10f        ..      BNE      0xc82 ; DrvGPIO_InitFunction + 1550
        0x00000c62:    2005        .       MOVS     r0,#5
        0x00000c64:    0700        ..      LSLS     r0,r0,#28
        0x00000c66:    6b40        @k      LDR      r0,[r0,#0x34]
        0x00000c68:    2301        .#      MOVS     r3,#1
        0x00000c6a:    02db        ..      LSLS     r3,r3,#11
        0x00000c6c:    4318        .C      ORRS     r0,r0,r3
        0x00000c6e:    2305        .#      MOVS     r3,#5
        0x00000c70:    071b        ..      LSLS     r3,r3,#28
        0x00000c72:    6358        Xc      STR      r0,[r3,#0x34]
        0x00000c74:    4851        QH      LDR      r0,[pc,#324] ; [0xdbc] = 0x50000040
        0x00000c76:    6900        .i      LDR      r0,[r0,#0x10]
        0x00000c78:    2310        .#      MOVS     r3,#0x10
        0x00000c7a:    4318        .C      ORRS     r0,r0,r3
        0x00000c7c:    4b4f        OK      LDR      r3,[pc,#316] ; [0xdbc] = 0x50000040
        0x00000c7e:    6118        .a      STR      r0,[r3,#0x10]
        0x00000c80:    e005        ..      B        0xc8e ; DrvGPIO_InitFunction + 1562
        0x00000c82:    484e        NH      LDR      r0,[pc,#312] ; [0xdbc] = 0x50000040
        0x00000c84:    6800        .h      LDR      r0,[r0,#0]
        0x00000c86:    2320         #      MOVS     r3,#0x20
        0x00000c88:    4318        .C      ORRS     r0,r0,r3
        0x00000c8a:    4b4c        LK      LDR      r3,[pc,#304] ; [0xdbc] = 0x50000040
        0x00000c8c:    6018        .`      STR      r0,[r3,#0]
        0x00000c8e:    e092        ..      B        0xdb6 ; DrvGPIO_InitFunction + 1858
        0x00000c90:    bf00        ..      NOP      
        0x00000c92:    bf00        ..      NOP      
        0x00000c94:    2933        3)      CMP      r1,#0x33
        0x00000c96:    d106        ..      BNE      0xca6 ; DrvGPIO_InitFunction + 1586
        0x00000c98:    4848        HH      LDR      r0,[pc,#288] ; [0xdbc] = 0x50000040
        0x00000c9a:    6800        .h      LDR      r0,[r0,#0]
        0x00000c9c:    2303        .#      MOVS     r3,#3
        0x00000c9e:    4318        .C      ORRS     r0,r0,r3
        0x00000ca0:    4b46        FK      LDR      r3,[pc,#280] ; [0xdbc] = 0x50000040
        0x00000ca2:    6018        .`      STR      r0,[r3,#0]
        0x00000ca4:    e00e        ..      B        0xcc4 ; DrvGPIO_InitFunction + 1616
        0x00000ca6:    293a        :)      CMP      r1,#0x3a
        0x00000ca8:    d106        ..      BNE      0xcb8 ; DrvGPIO_InitFunction + 1604
        0x00000caa:    4844        DH      LDR      r0,[pc,#272] ; [0xdbc] = 0x50000040
        0x00000cac:    6800        .h      LDR      r0,[r0,#0]
        0x00000cae:    2301        .#      MOVS     r3,#1
        0x00000cb0:    4318        .C      ORRS     r0,r0,r3
        0x00000cb2:    4b42        BK      LDR      r3,[pc,#264] ; [0xdbc] = 0x50000040
        0x00000cb4:    6018        .`      STR      r0,[r3,#0]
        0x00000cb6:    e005        ..      B        0xcc4 ; DrvGPIO_InitFunction + 1616
        0x00000cb8:    4840        @H      LDR      r0,[pc,#256] ; [0xdbc] = 0x50000040
        0x00000cba:    6800        .h      LDR      r0,[r0,#0]
        0x00000cbc:    2302        .#      MOVS     r3,#2
        0x00000cbe:    4318        .C      ORRS     r0,r0,r3
        0x00000cc0:    4b3e        >K      LDR      r3,[pc,#248] ; [0xdbc] = 0x50000040
        0x00000cc2:    6018        .`      STR      r0,[r3,#0]
        0x00000cc4:    e077        w.      B        0xdb6 ; DrvGPIO_InitFunction + 1858
        0x00000cc6:    2005        .       MOVS     r0,#5
        0x00000cc8:    0700        ..      LSLS     r0,r0,#28
        0x00000cca:    6b40        @k      LDR      r0,[r0,#0x34]
        0x00000ccc:    230c        .#      MOVS     r3,#0xc
        0x00000cce:    4318        .C      ORRS     r0,r0,r3
        0x00000cd0:    2305        .#      MOVS     r3,#5
        0x00000cd2:    071b        ..      LSLS     r3,r3,#28
        0x00000cd4:    6358        Xc      STR      r0,[r3,#0x34]
        0x00000cd6:    4839        9H      LDR      r0,[pc,#228] ; [0xdbc] = 0x50000040
        0x00000cd8:    6900        .i      LDR      r0,[r0,#0x10]
        0x00000cda:    2303        .#      MOVS     r3,#3
        0x00000cdc:    035b        [.      LSLS     r3,r3,#13
        0x00000cde:    4318        .C      ORRS     r0,r0,r3
        0x00000ce0:    4b36        6K      LDR      r3,[pc,#216] ; [0xdbc] = 0x50000040
        0x00000ce2:    6118        .a      STR      r0,[r3,#0x10]
        0x00000ce4:    2005        .       MOVS     r0,#5
        0x00000ce6:    0700        ..      LSLS     r0,r0,#28
        0x00000ce8:    6b00        .k      LDR      r0,[r0,#0x30]
        0x00000cea:    4b35        5K      LDR      r3,[pc,#212] ; [0xdc0] = 0x703e
        0x00000cec:    4318        .C      ORRS     r0,r0,r3
        0x00000cee:    2305        .#      MOVS     r3,#5
        0x00000cf0:    071b        ..      LSLS     r3,r3,#28
        0x00000cf2:    6318        .c      STR      r0,[r3,#0x30]
        0x00000cf4:    4831        1H      LDR      r0,[pc,#196] ; [0xdbc] = 0x50000040
        0x00000cf6:    6900        .i      LDR      r0,[r0,#0x10]
        0x00000cf8:    23ff        .#      MOVS     r3,#0xff
        0x00000cfa:    041b        ..      LSLS     r3,r3,#16
        0x00000cfc:    4318        .C      ORRS     r0,r0,r3
        0x00000cfe:    4b2f        /K      LDR      r3,[pc,#188] ; [0xdbc] = 0x50000040
        0x00000d00:    6118        .a      STR      r0,[r3,#0x10]
        0x00000d02:    bf00        ..      NOP      
        0x00000d04:    293c        <)      CMP      r1,#0x3c
        0x00000d06:    d11e        ..      BNE      0xd46 ; DrvGPIO_InitFunction + 1746
        0x00000d08:    2005        .       MOVS     r0,#5
        0x00000d0a:    0700        ..      LSLS     r0,r0,#28
        0x00000d0c:    6b40        @k      LDR      r0,[r0,#0x34]
        0x00000d0e:    230c        .#      MOVS     r3,#0xc
        0x00000d10:    4398        .C      BICS     r0,r0,r3
        0x00000d12:    2305        .#      MOVS     r3,#5
        0x00000d14:    071b        ..      LSLS     r3,r3,#28
        0x00000d16:    6358        Xc      STR      r0,[r3,#0x34]
        0x00000d18:    4828        (H      LDR      r0,[pc,#160] ; [0xdbc] = 0x50000040
        0x00000d1a:    6900        .i      LDR      r0,[r0,#0x10]
        0x00000d1c:    2303        .#      MOVS     r3,#3
        0x00000d1e:    035b        [.      LSLS     r3,r3,#13
        0x00000d20:    4398        .C      BICS     r0,r0,r3
        0x00000d22:    4b26        &K      LDR      r3,[pc,#152] ; [0xdbc] = 0x50000040
        0x00000d24:    6118        .a      STR      r0,[r3,#0x10]
        0x00000d26:    2005        .       MOVS     r0,#5
        0x00000d28:    0700        ..      LSLS     r0,r0,#28
        0x00000d2a:    6b00        .k      LDR      r0,[r0,#0x30]
        0x00000d2c:    4b24        $K      LDR      r3,[pc,#144] ; [0xdc0] = 0x703e
        0x00000d2e:    43db        .C      MVNS     r3,r3
        0x00000d30:    4018        .@      ANDS     r0,r0,r3
        0x00000d32:    2305        .#      MOVS     r3,#5
        0x00000d34:    071b        ..      LSLS     r3,r3,#28
        0x00000d36:    6318        .c      STR      r0,[r3,#0x30]
        0x00000d38:    4820         H      LDR      r0,[pc,#128] ; [0xdbc] = 0x50000040
        0x00000d3a:    6900        .i      LDR      r0,[r0,#0x10]
        0x00000d3c:    23ff        .#      MOVS     r3,#0xff
        0x00000d3e:    041b        ..      LSLS     r3,r3,#16
        0x00000d40:    4398        .C      BICS     r0,r0,r3
        0x00000d42:    4b1e        .K      LDR      r3,[pc,#120] ; [0xdbc] = 0x50000040
        0x00000d44:    6118        .a      STR      r0,[r3,#0x10]
        0x00000d46:    481d        .H      LDR      r0,[pc,#116] ; [0xdbc] = 0x50000040
        0x00000d48:    6900        .i      LDR      r0,[r0,#0x10]
        0x00000d4a:    2303        .#      MOVS     r3,#3
        0x00000d4c:    02db        ..      LSLS     r3,r3,#11
        0x00000d4e:    4318        .C      ORRS     r0,r0,r3
        0x00000d50:    4b1a        .K      LDR      r3,[pc,#104] ; [0xdbc] = 0x50000040
        0x00000d52:    6118        .a      STR      r0,[r3,#0x10]
        0x00000d54:    2005        .       MOVS     r0,#5
        0x00000d56:    0700        ..      LSLS     r0,r0,#28
        0x00000d58:    6b80        .k      LDR      r0,[r0,#0x38]
        0x00000d5a:    23ff        .#      MOVS     r3,#0xff
        0x00000d5c:    3301        .3      ADDS     r3,#1
        0x00000d5e:    4318        .C      ORRS     r0,r0,r3
        0x00000d60:    2305        .#      MOVS     r3,#5
        0x00000d62:    071b        ..      LSLS     r3,r3,#28
        0x00000d64:    6398        .c      STR      r0,[r3,#0x38]
        0x00000d66:    4618        .F      MOV      r0,r3
        0x00000d68:    6b00        .k      LDR      r0,[r0,#0x30]
        0x00000d6a:    2303        .#      MOVS     r3,#3
        0x00000d6c:    029b        ..      LSLS     r3,r3,#10
        0x00000d6e:    4318        .C      ORRS     r0,r0,r3
        0x00000d70:    2305        .#      MOVS     r3,#5
        0x00000d72:    071b        ..      LSLS     r3,r3,#28
        0x00000d74:    6318        .c      STR      r0,[r3,#0x30]
        0x00000d76:    4618        .F      MOV      r0,r3
        0x00000d78:    6b40        @k      LDR      r0,[r0,#0x34]
        0x00000d7a:    23c0        .#      MOVS     r3,#0xc0
        0x00000d7c:    4318        .C      ORRS     r0,r0,r3
        0x00000d7e:    2305        .#      MOVS     r3,#5
        0x00000d80:    071b        ..      LSLS     r3,r3,#28
        0x00000d82:    6358        Xc      STR      r0,[r3,#0x34]
        0x00000d84:    4618        .F      MOV      r0,r3
        0x00000d86:    6b00        .k      LDR      r0,[r0,#0x30]
        0x00000d88:    23c0        .#      MOVS     r3,#0xc0
        0x00000d8a:    4318        .C      ORRS     r0,r0,r3
        0x00000d8c:    2305        .#      MOVS     r3,#5
        0x00000d8e:    071b        ..      LSLS     r3,r3,#28
        0x00000d90:    6318        .c      STR      r0,[r3,#0x30]
        0x00000d92:    4618        .F      MOV      r0,r3
        0x00000d94:    6b80        .k      LDR      r0,[r0,#0x38]
        0x00000d96:    4b0b        .K      LDR      r3,[pc,#44] ; [0xdc4] = 0xc0c0
        0x00000d98:    4318        .C      ORRS     r0,r0,r3
        0x00000d9a:    2305        .#      MOVS     r3,#5
        0x00000d9c:    071b        ..      LSLS     r3,r3,#28
        0x00000d9e:    6398        .c      STR      r0,[r3,#0x38]
        0x00000da0:    4618        .F      MOV      r0,r3
        0x00000da2:    6b40        @k      LDR      r0,[r0,#0x34]
        0x00000da4:    2303        .#      MOVS     r3,#3
        0x00000da6:    031b        ..      LSLS     r3,r3,#12
        0x00000da8:    4318        .C      ORRS     r0,r0,r3
        0x00000daa:    2305        .#      MOVS     r3,#5
        0x00000dac:    071b        ..      LSLS     r3,r3,#28
        0x00000dae:    6358        Xc      STR      r0,[r3,#0x34]
        0x00000db0:    e001        ..      B        0xdb6 ; DrvGPIO_InitFunction + 1858
        0x00000db2:    4805        .H      LDR      r0,[pc,#20] ; [0xdc8] = 0xffff8901
        0x00000db4:    bd10        ..      POP      {r4,pc}
        0x00000db6:    bf00        ..      NOP      
        0x00000db8:    2000        .       MOVS     r0,#0
        0x00000dba:    e7fb        ..      B        0xdb4 ; DrvGPIO_InitFunction + 1856
    $d
        0x00000dbc:    50000040    @..P    DCD    1342177344
        0x00000dc0:    0000703e    >p..    DCD    28734
        0x00000dc4:    0000c0c0    ....    DCD    49344
        0x00000dc8:    ffff8901    ....    DCD    4294936833
    $t
    i.DrvGPIO_Open
    DrvGPIO_Open
        0x00000dcc:    b538        8.      PUSH     {r3-r5,lr}
        0x00000dce:    4603        .F      MOV      r3,r0
        0x00000dd0:    2900        .)      CMP      r1,#0
        0x00000dd2:    db01        ..      BLT      0xdd8 ; DrvGPIO_Open + 12
        0x00000dd4:    2910        .)      CMP      r1,#0x10
        0x00000dd6:    dd01        ..      BLE      0xddc ; DrvGPIO_Open + 16
        0x00000dd8:    481c        .H      LDR      r0,[pc,#112] ; [0xe4c] = 0xffff8901
        0x00000dda:    bd38        8.      POP      {r3-r5,pc}
        0x00000ddc:    0198        ..      LSLS     r0,r3,#6
        0x00000dde:    4c1c        .L      LDR      r4,[pc,#112] ; [0xe50] = 0x50004000
        0x00000de0:    1900        ..      ADDS     r0,r0,r4
        0x00000de2:    9000        ..      STR      r0,[sp,#0]
        0x00000de4:    2a00        .*      CMP      r2,#0
        0x00000de6:    d003        ..      BEQ      0xdf0 ; DrvGPIO_Open + 36
        0x00000de8:    2a01        .*      CMP      r2,#1
        0x00000dea:    d001        ..      BEQ      0xdf0 ; DrvGPIO_Open + 36
        0x00000dec:    2a02        .*      CMP      r2,#2
        0x00000dee:    d11d        ..      BNE      0xe2c ; DrvGPIO_Open + 96
        0x00000df0:    9800        ..      LDR      r0,[sp,#0]
        0x00000df2:    6800        .h      LDR      r0,[r0,#0]
        0x00000df4:    004d        M.      LSLS     r5,r1,#1
        0x00000df6:    2403        .$      MOVS     r4,#3
        0x00000df8:    40ac        .@      LSLS     r4,r4,r5
        0x00000dfa:    43a0        .C      BICS     r0,r0,r4
        0x00000dfc:    9c00        ..      LDR      r4,[sp,#0]
        0x00000dfe:    6020         `      STR      r0,[r4,#0]
        0x00000e00:    2a01        .*      CMP      r2,#1
        0x00000e02:    d108        ..      BNE      0xe16 ; DrvGPIO_Open + 74
        0x00000e04:    9800        ..      LDR      r0,[sp,#0]
        0x00000e06:    6800        .h      LDR      r0,[r0,#0]
        0x00000e08:    004d        M.      LSLS     r5,r1,#1
        0x00000e0a:    2401        .$      MOVS     r4,#1
        0x00000e0c:    40ac        .@      LSLS     r4,r4,r5
        0x00000e0e:    4320         C      ORRS     r0,r0,r4
        0x00000e10:    9c00        ..      LDR      r4,[sp,#0]
        0x00000e12:    6020         `      STR      r0,[r4,#0]
        0x00000e14:    e017        ..      B        0xe46 ; DrvGPIO_Open + 122
        0x00000e16:    2a02        .*      CMP      r2,#2
        0x00000e18:    d115        ..      BNE      0xe46 ; DrvGPIO_Open + 122
        0x00000e1a:    9800        ..      LDR      r0,[sp,#0]
        0x00000e1c:    6800        .h      LDR      r0,[r0,#0]
        0x00000e1e:    004d        M.      LSLS     r5,r1,#1
        0x00000e20:    2402        .$      MOVS     r4,#2
        0x00000e22:    40ac        .@      LSLS     r4,r4,r5
        0x00000e24:    4320         C      ORRS     r0,r0,r4
        0x00000e26:    9c00        ..      LDR      r4,[sp,#0]
        0x00000e28:    6020         `      STR      r0,[r4,#0]
        0x00000e2a:    e00c        ..      B        0xe46 ; DrvGPIO_Open + 122
        0x00000e2c:    2a03        .*      CMP      r2,#3
        0x00000e2e:    d108        ..      BNE      0xe42 ; DrvGPIO_Open + 118
        0x00000e30:    9800        ..      LDR      r0,[sp,#0]
        0x00000e32:    6800        .h      LDR      r0,[r0,#0]
        0x00000e34:    004d        M.      LSLS     r5,r1,#1
        0x00000e36:    2403        .$      MOVS     r4,#3
        0x00000e38:    40ac        .@      LSLS     r4,r4,r5
        0x00000e3a:    4320         C      ORRS     r0,r0,r4
        0x00000e3c:    9c00        ..      LDR      r4,[sp,#0]
        0x00000e3e:    6020         `      STR      r0,[r4,#0]
        0x00000e40:    e001        ..      B        0xe46 ; DrvGPIO_Open + 122
        0x00000e42:    4802        .H      LDR      r0,[pc,#8] ; [0xe4c] = 0xffff8901
        0x00000e44:    e7c9        ..      B        0xdda ; DrvGPIO_Open + 14
        0x00000e46:    2000        .       MOVS     r0,#0
        0x00000e48:    e7c7        ..      B        0xdda ; DrvGPIO_Open + 14
    $d
        0x00000e4a:    0000        ..      DCW    0
        0x00000e4c:    ffff8901    ....    DCD    4294936833
        0x00000e50:    50004000    .@.P    DCD    1342193664
    $t
    i.DrvGPIO_SetBit
    DrvGPIO_SetBit
        0x00000e54:    b510        ..      PUSH     {r4,lr}
        0x00000e56:    4603        .F      MOV      r3,r0
        0x00000e58:    2900        .)      CMP      r1,#0
        0x00000e5a:    db01        ..      BLT      0xe60 ; DrvGPIO_SetBit + 12
        0x00000e5c:    2910        .)      CMP      r1,#0x10
        0x00000e5e:    dd01        ..      BLE      0xe64 ; DrvGPIO_SetBit + 16
        0x00000e60:    4805        .H      LDR      r0,[pc,#20] ; [0xe78] = 0xffff8901
        0x00000e62:    bd10        ..      POP      {r4,pc}
        0x00000e64:    0198        ..      LSLS     r0,r3,#6
        0x00000e66:    4c05        .L      LDR      r4,[pc,#20] ; [0xe7c] = 0x50004000
        0x00000e68:    1902        ..      ADDS     r2,r0,r4
        0x00000e6a:    6890        .h      LDR      r0,[r2,#8]
        0x00000e6c:    2401        .$      MOVS     r4,#1
        0x00000e6e:    408c        .@      LSLS     r4,r4,r1
        0x00000e70:    4320         C      ORRS     r0,r0,r4
        0x00000e72:    6090        .`      STR      r0,[r2,#8]
        0x00000e74:    2000        .       MOVS     r0,#0
        0x00000e76:    e7f4        ..      B        0xe62 ; DrvGPIO_SetBit + 14
    $d
        0x00000e78:    ffff8901    ....    DCD    4294936833
        0x00000e7c:    50004000    .@.P    DCD    1342193664
    $t
    i.DrvSPI_DisableAutoSS
    DrvSPI_DisableAutoSS
        0x00000e80:    0081        ..      LSLS     r1,r0,#2
        0x00000e82:    4a09        .J      LDR      r2,[pc,#36] ; [0xea8] = 0x20000814
        0x00000e84:    5851        QX      LDR      r1,[r2,r1]
        0x00000e86:    6889        .h      LDR      r1,[r1,#8]
        0x00000e88:    2208        ."      MOVS     r2,#8
        0x00000e8a:    4391        .C      BICS     r1,r1,r2
        0x00000e8c:    0082        ..      LSLS     r2,r0,#2
        0x00000e8e:    4b06        .K      LDR      r3,[pc,#24] ; [0xea8] = 0x20000814
        0x00000e90:    589a        .X      LDR      r2,[r3,r2]
        0x00000e92:    6091        .`      STR      r1,[r2,#8]
        0x00000e94:    0081        ..      LSLS     r1,r0,#2
        0x00000e96:    461a        .F      MOV      r2,r3
        0x00000e98:    5851        QX      LDR      r1,[r2,r1]
        0x00000e9a:    6889        .h      LDR      r1,[r1,#8]
        0x00000e9c:    0889        ..      LSRS     r1,r1,#2
        0x00000e9e:    0089        ..      LSLS     r1,r1,#2
        0x00000ea0:    0082        ..      LSLS     r2,r0,#2
        0x00000ea2:    589a        .X      LDR      r2,[r3,r2]
        0x00000ea4:    6091        .`      STR      r1,[r2,#8]
        0x00000ea6:    4770        pG      BX       lr
    $d
        0x00000ea8:    20000814    ...     DCD    536872980
    $t
    i.DrvSPI_IsBusy
    DrvSPI_IsBusy
        0x00000eac:    4601        .F      MOV      r1,r0
        0x00000eae:    0088        ..      LSLS     r0,r1,#2
        0x00000eb0:    4a02        .J      LDR      r2,[pc,#8] ; [0xebc] = 0x20000814
        0x00000eb2:    5810        .X      LDR      r0,[r2,r0]
        0x00000eb4:    6800        .h      LDR      r0,[r0,#0]
        0x00000eb6:    07c0        ..      LSLS     r0,r0,#31
        0x00000eb8:    0fc0        ..      LSRS     r0,r0,#31
        0x00000eba:    4770        pG      BX       lr
    $d
        0x00000ebc:    20000814    ...     DCD    536872980
    $t
    i.DrvSPI_Open
    DrvSPI_Open
        0x00000ec0:    b5f0        ..      PUSH     {r4-r7,lr}
        0x00000ec2:    4604        .F      MOV      r4,r0
        0x00000ec4:    2014        .       MOVS     r0,#0x14
        0x00000ec6:    4360        `C      MULS     r0,r4,r0
        0x00000ec8:    4eec        .N      LDR      r6,[pc,#944] ; [0x127c] = 0x20000c24
        0x00000eca:    5c30        0\      LDRB     r0,[r6,r0]
        0x00000ecc:    2800        .(      CMP      r0,#0
        0x00000ece:    d001        ..      BEQ      0xed4 ; DrvSPI_Open + 20
        0x00000ed0:    48eb        .H      LDR      r0,[pc,#940] ; [0x1280] = 0xffff9403
        0x00000ed2:    bdf0        ..      POP      {r4-r7,pc}
        0x00000ed4:    2b00        .+      CMP      r3,#0
        0x00000ed6:    dd01        ..      BLE      0xedc ; DrvSPI_Open + 28
        0x00000ed8:    2b20         +      CMP      r3,#0x20
        0x00000eda:    dd02        ..      BLE      0xee2 ; DrvSPI_Open + 34
        0x00000edc:    48e8        .H      LDR      r0,[pc,#928] ; [0x1280] = 0xffff9403
        0x00000ede:    1e40        @.      SUBS     r0,r0,#1
        0x00000ee0:    e7f7        ..      B        0xed2 ; DrvSPI_Open + 18
        0x00000ee2:    2c00        .,      CMP      r4,#0
        0x00000ee4:    d11a        ..      BNE      0xf1c ; DrvSPI_Open + 92
        0x00000ee6:    48e7        .H      LDR      r0,[pc,#924] ; [0x1284] = 0x50000200
        0x00000ee8:    6880        .h      LDR      r0,[r0,#8]
        0x00000eea:    2601        .&      MOVS     r6,#1
        0x00000eec:    0336        6.      LSLS     r6,r6,#12
        0x00000eee:    43b0        .C      BICS     r0,r0,r6
        0x00000ef0:    1980        ..      ADDS     r0,r0,r6
        0x00000ef2:    4ee4        .N      LDR      r6,[pc,#912] ; [0x1284] = 0x50000200
        0x00000ef4:    60b0        .`      STR      r0,[r6,#8]
        0x00000ef6:    2005        .       MOVS     r0,#5
        0x00000ef8:    0700        ..      LSLS     r0,r0,#28
        0x00000efa:    68c0        .h      LDR      r0,[r0,#0xc]
        0x00000efc:    2601        .&      MOVS     r6,#1
        0x00000efe:    0336        6.      LSLS     r6,r6,#12
        0x00000f00:    43b0        .C      BICS     r0,r0,r6
        0x00000f02:    1980        ..      ADDS     r0,r0,r6
        0x00000f04:    2605        .&      MOVS     r6,#5
        0x00000f06:    0736        6.      LSLS     r6,r6,#28
        0x00000f08:    60f0        .`      STR      r0,[r6,#0xc]
        0x00000f0a:    4630        0F      MOV      r0,r6
        0x00000f0c:    68c0        .h      LDR      r0,[r0,#0xc]
        0x00000f0e:    2601        .&      MOVS     r6,#1
        0x00000f10:    0336        6.      LSLS     r6,r6,#12
        0x00000f12:    43b0        .C      BICS     r0,r0,r6
        0x00000f14:    2605        .&      MOVS     r6,#5
        0x00000f16:    0736        6.      LSLS     r6,r6,#28
        0x00000f18:    60f0        .`      STR      r0,[r6,#0xc]
        0x00000f1a:    e04c        L.      B        0xfb6 ; DrvSPI_Open + 246
        0x00000f1c:    2c01        .,      CMP      r4,#1
        0x00000f1e:    d117        ..      BNE      0xf50 ; DrvSPI_Open + 144
        0x00000f20:    48d8        .H      LDR      r0,[pc,#864] ; [0x1284] = 0x50000200
        0x00000f22:    6880        .h      LDR      r0,[r0,#8]
        0x00000f24:    0366        f.      LSLS     r6,r4,#13
        0x00000f26:    43b0        .C      BICS     r0,r0,r6
        0x00000f28:    1980        ..      ADDS     r0,r0,r6
        0x00000f2a:    4ed6        .N      LDR      r6,[pc,#856] ; [0x1284] = 0x50000200
        0x00000f2c:    60b0        .`      STR      r0,[r6,#8]
        0x00000f2e:    2005        .       MOVS     r0,#5
        0x00000f30:    0700        ..      LSLS     r0,r0,#28
        0x00000f32:    68c0        .h      LDR      r0,[r0,#0xc]
        0x00000f34:    0366        f.      LSLS     r6,r4,#13
        0x00000f36:    43b0        .C      BICS     r0,r0,r6
        0x00000f38:    1980        ..      ADDS     r0,r0,r6
        0x00000f3a:    2605        .&      MOVS     r6,#5
        0x00000f3c:    0736        6.      LSLS     r6,r6,#28
        0x00000f3e:    60f0        .`      STR      r0,[r6,#0xc]
        0x00000f40:    4630        0F      MOV      r0,r6
        0x00000f42:    68c0        .h      LDR      r0,[r0,#0xc]
        0x00000f44:    0366        f.      LSLS     r6,r4,#13
        0x00000f46:    43b0        .C      BICS     r0,r0,r6
        0x00000f48:    2605        .&      MOVS     r6,#5
        0x00000f4a:    0736        6.      LSLS     r6,r6,#28
        0x00000f4c:    60f0        .`      STR      r0,[r6,#0xc]
        0x00000f4e:    e032        2.      B        0xfb6 ; DrvSPI_Open + 246
        0x00000f50:    2c02        .,      CMP      r4,#2
        0x00000f52:    d117        ..      BNE      0xf84 ; DrvSPI_Open + 196
        0x00000f54:    48cb        .H      LDR      r0,[pc,#812] ; [0x1284] = 0x50000200
        0x00000f56:    6880        .h      LDR      r0,[r0,#8]
        0x00000f58:    0366        f.      LSLS     r6,r4,#13
        0x00000f5a:    43b0        .C      BICS     r0,r0,r6
        0x00000f5c:    1980        ..      ADDS     r0,r0,r6
        0x00000f5e:    4ec9        .N      LDR      r6,[pc,#804] ; [0x1284] = 0x50000200
        0x00000f60:    60b0        .`      STR      r0,[r6,#8]
        0x00000f62:    2005        .       MOVS     r0,#5
        0x00000f64:    0700        ..      LSLS     r0,r0,#28
        0x00000f66:    68c0        .h      LDR      r0,[r0,#0xc]
        0x00000f68:    0366        f.      LSLS     r6,r4,#13
        0x00000f6a:    43b0        .C      BICS     r0,r0,r6
        0x00000f6c:    1980        ..      ADDS     r0,r0,r6
        0x00000f6e:    2605        .&      MOVS     r6,#5
        0x00000f70:    0736        6.      LSLS     r6,r6,#28
        0x00000f72:    60f0        .`      STR      r0,[r6,#0xc]
        0x00000f74:    4630        0F      MOV      r0,r6
        0x00000f76:    68c0        .h      LDR      r0,[r0,#0xc]
        0x00000f78:    0366        f.      LSLS     r6,r4,#13
        0x00000f7a:    43b0        .C      BICS     r0,r0,r6
        0x00000f7c:    2605        .&      MOVS     r6,#5
        0x00000f7e:    0736        6.      LSLS     r6,r6,#28
        0x00000f80:    60f0        .`      STR      r0,[r6,#0xc]
        0x00000f82:    e018        ..      B        0xfb6 ; DrvSPI_Open + 246
        0x00000f84:    48bf        .H      LDR      r0,[pc,#764] ; [0x1284] = 0x50000200
        0x00000f86:    6880        .h      LDR      r0,[r0,#8]
        0x00000f88:    2601        .&      MOVS     r6,#1
        0x00000f8a:    03f6        ..      LSLS     r6,r6,#15
        0x00000f8c:    43b0        .C      BICS     r0,r0,r6
        0x00000f8e:    1980        ..      ADDS     r0,r0,r6
        0x00000f90:    4ebc        .N      LDR      r6,[pc,#752] ; [0x1284] = 0x50000200
        0x00000f92:    60b0        .`      STR      r0,[r6,#8]
        0x00000f94:    2005        .       MOVS     r0,#5
        0x00000f96:    0700        ..      LSLS     r0,r0,#28
        0x00000f98:    68c0        .h      LDR      r0,[r0,#0xc]
        0x00000f9a:    01b6        ..      LSLS     r6,r6,#6
        0x00000f9c:    43b0        .C      BICS     r0,r0,r6
        0x00000f9e:    1980        ..      ADDS     r0,r0,r6
        0x00000fa0:    2605        .&      MOVS     r6,#5
        0x00000fa2:    0736        6.      LSLS     r6,r6,#28
        0x00000fa4:    60f0        .`      STR      r0,[r6,#0xc]
        0x00000fa6:    4630        0F      MOV      r0,r6
        0x00000fa8:    68c0        .h      LDR      r0,[r0,#0xc]
        0x00000faa:    2601        .&      MOVS     r6,#1
        0x00000fac:    03f6        ..      LSLS     r6,r6,#15
        0x00000fae:    43b0        .C      BICS     r0,r0,r6
        0x00000fb0:    2605        .&      MOVS     r6,#5
        0x00000fb2:    0736        6.      LSLS     r6,r6,#28
        0x00000fb4:    60f0        .`      STR      r0,[r6,#0xc]
        0x00000fb6:    2501        .%      MOVS     r5,#1
        0x00000fb8:    042d        -.      LSLS     r5,r5,#16
        0x00000fba:    e006        ..      B        0xfca ; DrvSPI_Open + 266
        0x00000fbc:    4628        (F      MOV      r0,r5
        0x00000fbe:    1e6d        m.      SUBS     r5,r5,#1
        0x00000fc0:    2800        .(      CMP      r0,#0
        0x00000fc2:    dc02        ..      BGT      0xfca ; DrvSPI_Open + 266
        0x00000fc4:    48ae        .H      LDR      r0,[pc,#696] ; [0x1280] = 0xffff9403
        0x00000fc6:    1c40        @.      ADDS     r0,r0,#1
        0x00000fc8:    e783        ..      B        0xed2 ; DrvSPI_Open + 18
        0x00000fca:    00a0        ..      LSLS     r0,r4,#2
        0x00000fcc:    4eae        .N      LDR      r6,[pc,#696] ; [0x1288] = 0x20000814
        0x00000fce:    5830        0X      LDR      r0,[r6,r0]
        0x00000fd0:    6800        .h      LDR      r0,[r0,#0]
        0x00000fd2:    07c0        ..      LSLS     r0,r0,#31
        0x00000fd4:    0fc0        ..      LSRS     r0,r0,#31
        0x00000fd6:    2800        .(      CMP      r0,#0
        0x00000fd8:    d1f0        ..      BNE      0xfbc ; DrvSPI_Open + 252
        0x00000fda:    2601        .&      MOVS     r6,#1
        0x00000fdc:    2014        .       MOVS     r0,#0x14
        0x00000fde:    4360        `C      MULS     r0,r4,r0
        0x00000fe0:    4fa6        .O      LDR      r7,[pc,#664] ; [0x127c] = 0x20000c24
        0x00000fe2:    543e        >T      STRB     r6,[r7,r0]
        0x00000fe4:    2600        .&      MOVS     r6,#0
        0x00000fe6:    2014        .       MOVS     r0,#0x14
        0x00000fe8:    4360        `C      MULS     r0,r4,r0
        0x00000fea:    19c0        ..      ADDS     r0,r0,r7
        0x00000fec:    6046        F`      STR      r6,[r0,#4]
        0x00000fee:    2014        .       MOVS     r0,#0x14
        0x00000ff0:    4360        `C      MULS     r0,r4,r0
        0x00000ff2:    19c0        ..      ADDS     r0,r0,r7
        0x00000ff4:    6086        .`      STR      r6,[r0,#8]
        0x00000ff6:    2014        .       MOVS     r0,#0x14
        0x00000ff8:    4360        `C      MULS     r0,r4,r0
        0x00000ffa:    19c0        ..      ADDS     r0,r0,r7
        0x00000ffc:    60c6        .`      STR      r6,[r0,#0xc]
        0x00000ffe:    2014        .       MOVS     r0,#0x14
        0x00001000:    4360        `C      MULS     r0,r4,r0
        0x00001002:    19c0        ..      ADDS     r0,r0,r7
        0x00001004:    6106        .a      STR      r6,[r0,#0x10]
        0x00001006:    2b20         +      CMP      r3,#0x20
        0x00001008:    d100        ..      BNE      0x100c ; DrvSPI_Open + 332
        0x0000100a:    2300        .#      MOVS     r3,#0
        0x0000100c:    00a0        ..      LSLS     r0,r4,#2
        0x0000100e:    4e9e        .N      LDR      r6,[pc,#632] ; [0x1288] = 0x20000814
        0x00001010:    5830        0X      LDR      r0,[r6,r0]
        0x00001012:    6800        .h      LDR      r0,[r0,#0]
        0x00001014:    26f8        .&      MOVS     r6,#0xf8
        0x00001016:    43b0        .C      BICS     r0,r0,r6
        0x00001018:    00de        ..      LSLS     r6,r3,#3
        0x0000101a:    27f8        .'      MOVS     r7,#0xf8
        0x0000101c:    403e        >@      ANDS     r6,r6,r7
        0x0000101e:    4330        0C      ORRS     r0,r0,r6
        0x00001020:    00a6        ..      LSLS     r6,r4,#2
        0x00001022:    4f99        .O      LDR      r7,[pc,#612] ; [0x1288] = 0x20000814
        0x00001024:    59be        .Y      LDR      r6,[r7,r6]
        0x00001026:    6030        0`      STR      r0,[r6,#0]
        0x00001028:    2901        .)      CMP      r1,#1
        0x0000102a:    d10a        ..      BNE      0x1042 ; DrvSPI_Open + 386
        0x0000102c:    00a0        ..      LSLS     r0,r4,#2
        0x0000102e:    463e        >F      MOV      r6,r7
        0x00001030:    5830        0X      LDR      r0,[r6,r0]
        0x00001032:    6800        .h      LDR      r0,[r0,#0]
        0x00001034:    048e        ..      LSLS     r6,r1,#18
        0x00001036:    43b0        .C      BICS     r0,r0,r6
        0x00001038:    1980        ..      ADDS     r0,r0,r6
        0x0000103a:    00a6        ..      LSLS     r6,r4,#2
        0x0000103c:    59be        .Y      LDR      r6,[r7,r6]
        0x0000103e:    6030        0`      STR      r0,[r6,#0]
        0x00001040:    e00a        ..      B        0x1058 ; DrvSPI_Open + 408
        0x00001042:    00a0        ..      LSLS     r0,r4,#2
        0x00001044:    4e90        .N      LDR      r6,[pc,#576] ; [0x1288] = 0x20000814
        0x00001046:    5830        0X      LDR      r0,[r6,r0]
        0x00001048:    6800        .h      LDR      r0,[r0,#0]
        0x0000104a:    2601        .&      MOVS     r6,#1
        0x0000104c:    04b6        ..      LSLS     r6,r6,#18
        0x0000104e:    43b0        .C      BICS     r0,r0,r6
        0x00001050:    00a6        ..      LSLS     r6,r4,#2
        0x00001052:    4f8d        .O      LDR      r7,[pc,#564] ; [0x1288] = 0x20000814
        0x00001054:    59be        .Y      LDR      r6,[r7,r6]
        0x00001056:    6030        0`      STR      r0,[r6,#0]
        0x00001058:    00a0        ..      LSLS     r0,r4,#2
        0x0000105a:    4e8b        .N      LDR      r6,[pc,#556] ; [0x1288] = 0x20000814
        0x0000105c:    5830        0X      LDR      r0,[r6,r0]
        0x0000105e:    6880        .h      LDR      r0,[r0,#8]
        0x00001060:    2608        .&      MOVS     r6,#8
        0x00001062:    43b0        .C      BICS     r0,r0,r6
        0x00001064:    3008        .0      ADDS     r0,r0,#8
        0x00001066:    00a6        ..      LSLS     r6,r4,#2
        0x00001068:    4f87        .O      LDR      r7,[pc,#540] ; [0x1288] = 0x20000814
        0x0000106a:    59be        .Y      LDR      r6,[r7,r6]
        0x0000106c:    60b0        .`      STR      r0,[r6,#8]
        0x0000106e:    2a00        .*      CMP      r2,#0
        0x00001070:    d11c        ..      BNE      0x10ac ; DrvSPI_Open + 492
        0x00001072:    00a0        ..      LSLS     r0,r4,#2
        0x00001074:    463e        >F      MOV      r6,r7
        0x00001076:    5830        0X      LDR      r0,[r6,r0]
        0x00001078:    6800        .h      LDR      r0,[r0,#0]
        0x0000107a:    2601        .&      MOVS     r6,#1
        0x0000107c:    02f6        ..      LSLS     r6,r6,#11
        0x0000107e:    43b0        .C      BICS     r0,r0,r6
        0x00001080:    00a6        ..      LSLS     r6,r4,#2
        0x00001082:    59be        .Y      LDR      r6,[r7,r6]
        0x00001084:    6030        0`      STR      r0,[r6,#0]
        0x00001086:    00a0        ..      LSLS     r0,r4,#2
        0x00001088:    463e        >F      MOV      r6,r7
        0x0000108a:    5830        0X      LDR      r0,[r6,r0]
        0x0000108c:    6800        .h      LDR      r0,[r0,#0]
        0x0000108e:    2604        .&      MOVS     r6,#4
        0x00001090:    43b0        .C      BICS     r0,r0,r6
        0x00001092:    00a6        ..      LSLS     r6,r4,#2
        0x00001094:    59be        .Y      LDR      r6,[r7,r6]
        0x00001096:    6030        0`      STR      r0,[r6,#0]
        0x00001098:    00a0        ..      LSLS     r0,r4,#2
        0x0000109a:    463e        >F      MOV      r6,r7
        0x0000109c:    5830        0X      LDR      r0,[r6,r0]
        0x0000109e:    6800        .h      LDR      r0,[r0,#0]
        0x000010a0:    2602        .&      MOVS     r6,#2
        0x000010a2:    43b0        .C      BICS     r0,r0,r6
        0x000010a4:    00a6        ..      LSLS     r6,r4,#2
        0x000010a6:    59be        .Y      LDR      r6,[r7,r6]
        0x000010a8:    6030        0`      STR      r0,[r6,#0]
        0x000010aa:    e0e5        ..      B        0x1278 ; DrvSPI_Open + 952
        0x000010ac:    2a01        .*      CMP      r2,#1
        0x000010ae:    d11d        ..      BNE      0x10ec ; DrvSPI_Open + 556
        0x000010b0:    00a0        ..      LSLS     r0,r4,#2
        0x000010b2:    4e75        uN      LDR      r6,[pc,#468] ; [0x1288] = 0x20000814
        0x000010b4:    5830        0X      LDR      r0,[r6,r0]
        0x000010b6:    6800        .h      LDR      r0,[r0,#0]
        0x000010b8:    02d6        ..      LSLS     r6,r2,#11
        0x000010ba:    43b0        .C      BICS     r0,r0,r6
        0x000010bc:    00a6        ..      LSLS     r6,r4,#2
        0x000010be:    4f72        rO      LDR      r7,[pc,#456] ; [0x1288] = 0x20000814
        0x000010c0:    59be        .Y      LDR      r6,[r7,r6]
        0x000010c2:    6030        0`      STR      r0,[r6,#0]
        0x000010c4:    00a0        ..      LSLS     r0,r4,#2
        0x000010c6:    463e        >F      MOV      r6,r7
        0x000010c8:    5830        0X      LDR      r0,[r6,r0]
        0x000010ca:    6800        .h      LDR      r0,[r0,#0]
        0x000010cc:    2604        .&      MOVS     r6,#4
        0x000010ce:    43b0        .C      BICS     r0,r0,r6
        0x000010d0:    1d00        ..      ADDS     r0,r0,#4
        0x000010d2:    00a6        ..      LSLS     r6,r4,#2
        0x000010d4:    59be        .Y      LDR      r6,[r7,r6]
        0x000010d6:    6030        0`      STR      r0,[r6,#0]
        0x000010d8:    00a0        ..      LSLS     r0,r4,#2
        0x000010da:    463e        >F      MOV      r6,r7
        0x000010dc:    5830        0X      LDR      r0,[r6,r0]
        0x000010de:    6800        .h      LDR      r0,[r0,#0]
        0x000010e0:    2602        .&      MOVS     r6,#2
        0x000010e2:    43b0        .C      BICS     r0,r0,r6
        0x000010e4:    00a6        ..      LSLS     r6,r4,#2
        0x000010e6:    59be        .Y      LDR      r6,[r7,r6]
        0x000010e8:    6030        0`      STR      r0,[r6,#0]
        0x000010ea:    e0c5        ..      B        0x1278 ; DrvSPI_Open + 952
        0x000010ec:    2a02        .*      CMP      r2,#2
        0x000010ee:    d11d        ..      BNE      0x112c ; DrvSPI_Open + 620
        0x000010f0:    00a0        ..      LSLS     r0,r4,#2
        0x000010f2:    4e65        eN      LDR      r6,[pc,#404] ; [0x1288] = 0x20000814
        0x000010f4:    5830        0X      LDR      r0,[r6,r0]
        0x000010f6:    6800        .h      LDR      r0,[r0,#0]
        0x000010f8:    0296        ..      LSLS     r6,r2,#10
        0x000010fa:    43b0        .C      BICS     r0,r0,r6
        0x000010fc:    00a6        ..      LSLS     r6,r4,#2
        0x000010fe:    4f62        bO      LDR      r7,[pc,#392] ; [0x1288] = 0x20000814
        0x00001100:    59be        .Y      LDR      r6,[r7,r6]
        0x00001102:    6030        0`      STR      r0,[r6,#0]
        0x00001104:    00a0        ..      LSLS     r0,r4,#2
        0x00001106:    463e        >F      MOV      r6,r7
        0x00001108:    5830        0X      LDR      r0,[r6,r0]
        0x0000110a:    6800        .h      LDR      r0,[r0,#0]
        0x0000110c:    2604        .&      MOVS     r6,#4
        0x0000110e:    43b0        .C      BICS     r0,r0,r6
        0x00001110:    00a6        ..      LSLS     r6,r4,#2
        0x00001112:    59be        .Y      LDR      r6,[r7,r6]
        0x00001114:    6030        0`      STR      r0,[r6,#0]
        0x00001116:    00a0        ..      LSLS     r0,r4,#2
        0x00001118:    463e        >F      MOV      r6,r7
        0x0000111a:    5830        0X      LDR      r0,[r6,r0]
        0x0000111c:    6800        .h      LDR      r0,[r0,#0]
        0x0000111e:    2602        .&      MOVS     r6,#2
        0x00001120:    43b0        .C      BICS     r0,r0,r6
        0x00001122:    1c80        ..      ADDS     r0,r0,#2
        0x00001124:    00a6        ..      LSLS     r6,r4,#2
        0x00001126:    59be        .Y      LDR      r6,[r7,r6]
        0x00001128:    6030        0`      STR      r0,[r6,#0]
        0x0000112a:    e0a5        ..      B        0x1278 ; DrvSPI_Open + 952
        0x0000112c:    2a03        .*      CMP      r2,#3
        0x0000112e:    d11f        ..      BNE      0x1170 ; DrvSPI_Open + 688
        0x00001130:    00a0        ..      LSLS     r0,r4,#2
        0x00001132:    4e55        UN      LDR      r6,[pc,#340] ; [0x1288] = 0x20000814
        0x00001134:    5830        0X      LDR      r0,[r6,r0]
        0x00001136:    6800        .h      LDR      r0,[r0,#0]
        0x00001138:    2601        .&      MOVS     r6,#1
        0x0000113a:    02f6        ..      LSLS     r6,r6,#11
        0x0000113c:    43b0        .C      BICS     r0,r0,r6
        0x0000113e:    00a6        ..      LSLS     r6,r4,#2
        0x00001140:    4f51        QO      LDR      r7,[pc,#324] ; [0x1288] = 0x20000814
        0x00001142:    59be        .Y      LDR      r6,[r7,r6]
        0x00001144:    6030        0`      STR      r0,[r6,#0]
        0x00001146:    00a0        ..      LSLS     r0,r4,#2
        0x00001148:    463e        >F      MOV      r6,r7
        0x0000114a:    5830        0X      LDR      r0,[r6,r0]
        0x0000114c:    6800        .h      LDR      r0,[r0,#0]
        0x0000114e:    2604        .&      MOVS     r6,#4
        0x00001150:    43b0        .C      BICS     r0,r0,r6
        0x00001152:    1d00        ..      ADDS     r0,r0,#4
        0x00001154:    00a6        ..      LSLS     r6,r4,#2
        0x00001156:    59be        .Y      LDR      r6,[r7,r6]
        0x00001158:    6030        0`      STR      r0,[r6,#0]
        0x0000115a:    00a0        ..      LSLS     r0,r4,#2
        0x0000115c:    463e        >F      MOV      r6,r7
        0x0000115e:    5830        0X      LDR      r0,[r6,r0]
        0x00001160:    6800        .h      LDR      r0,[r0,#0]
        0x00001162:    2602        .&      MOVS     r6,#2
        0x00001164:    43b0        .C      BICS     r0,r0,r6
        0x00001166:    1c80        ..      ADDS     r0,r0,#2
        0x00001168:    00a6        ..      LSLS     r6,r4,#2
        0x0000116a:    59be        .Y      LDR      r6,[r7,r6]
        0x0000116c:    6030        0`      STR      r0,[r6,#0]
        0x0000116e:    e083        ..      B        0x1278 ; DrvSPI_Open + 952
        0x00001170:    2a04        .*      CMP      r2,#4
        0x00001172:    d11d        ..      BNE      0x11b0 ; DrvSPI_Open + 752
        0x00001174:    00a0        ..      LSLS     r0,r4,#2
        0x00001176:    4e44        DN      LDR      r6,[pc,#272] ; [0x1288] = 0x20000814
        0x00001178:    5830        0X      LDR      r0,[r6,r0]
        0x0000117a:    6800        .h      LDR      r0,[r0,#0]
        0x0000117c:    0256        V.      LSLS     r6,r2,#9
        0x0000117e:    43b0        .C      BICS     r0,r0,r6
        0x00001180:    1980        ..      ADDS     r0,r0,r6
        0x00001182:    00a6        ..      LSLS     r6,r4,#2
        0x00001184:    4f40        @O      LDR      r7,[pc,#256] ; [0x1288] = 0x20000814
        0x00001186:    59be        .Y      LDR      r6,[r7,r6]
        0x00001188:    6030        0`      STR      r0,[r6,#0]
        0x0000118a:    00a0        ..      LSLS     r0,r4,#2
        0x0000118c:    463e        >F      MOV      r6,r7
        0x0000118e:    5830        0X      LDR      r0,[r6,r0]
        0x00001190:    6800        .h      LDR      r0,[r0,#0]
        0x00001192:    2604        .&      MOVS     r6,#4
        0x00001194:    43b0        .C      BICS     r0,r0,r6
        0x00001196:    00a6        ..      LSLS     r6,r4,#2
        0x00001198:    59be        .Y      LDR      r6,[r7,r6]
        0x0000119a:    6030        0`      STR      r0,[r6,#0]
        0x0000119c:    00a0        ..      LSLS     r0,r4,#2
        0x0000119e:    463e        >F      MOV      r6,r7
        0x000011a0:    5830        0X      LDR      r0,[r6,r0]
        0x000011a2:    6800        .h      LDR      r0,[r0,#0]
        0x000011a4:    2602        .&      MOVS     r6,#2
        0x000011a6:    43b0        .C      BICS     r0,r0,r6
        0x000011a8:    00a6        ..      LSLS     r6,r4,#2
        0x000011aa:    59be        .Y      LDR      r6,[r7,r6]
        0x000011ac:    6030        0`      STR      r0,[r6,#0]
        0x000011ae:    e063        c.      B        0x1278 ; DrvSPI_Open + 952
        0x000011b0:    2a05        .*      CMP      r2,#5
        0x000011b2:    d11f        ..      BNE      0x11f4 ; DrvSPI_Open + 820
        0x000011b4:    00a0        ..      LSLS     r0,r4,#2
        0x000011b6:    4e34        4N      LDR      r6,[pc,#208] ; [0x1288] = 0x20000814
        0x000011b8:    5830        0X      LDR      r0,[r6,r0]
        0x000011ba:    6800        .h      LDR      r0,[r0,#0]
        0x000011bc:    2601        .&      MOVS     r6,#1
        0x000011be:    02f6        ..      LSLS     r6,r6,#11
        0x000011c0:    43b0        .C      BICS     r0,r0,r6
        0x000011c2:    1980        ..      ADDS     r0,r0,r6
        0x000011c4:    00a6        ..      LSLS     r6,r4,#2
        0x000011c6:    4f30        0O      LDR      r7,[pc,#192] ; [0x1288] = 0x20000814
        0x000011c8:    59be        .Y      LDR      r6,[r7,r6]
        0x000011ca:    6030        0`      STR      r0,[r6,#0]
        0x000011cc:    00a0        ..      LSLS     r0,r4,#2
        0x000011ce:    463e        >F      MOV      r6,r7
        0x000011d0:    5830        0X      LDR      r0,[r6,r0]
        0x000011d2:    6800        .h      LDR      r0,[r0,#0]
        0x000011d4:    2604        .&      MOVS     r6,#4
        0x000011d6:    43b0        .C      BICS     r0,r0,r6
        0x000011d8:    1d00        ..      ADDS     r0,r0,#4
        0x000011da:    00a6        ..      LSLS     r6,r4,#2
        0x000011dc:    59be        .Y      LDR      r6,[r7,r6]
        0x000011de:    6030        0`      STR      r0,[r6,#0]
        0x000011e0:    00a0        ..      LSLS     r0,r4,#2
        0x000011e2:    463e        >F      MOV      r6,r7
        0x000011e4:    5830        0X      LDR      r0,[r6,r0]
        0x000011e6:    6800        .h      LDR      r0,[r0,#0]
        0x000011e8:    2602        .&      MOVS     r6,#2
        0x000011ea:    43b0        .C      BICS     r0,r0,r6
        0x000011ec:    00a6        ..      LSLS     r6,r4,#2
        0x000011ee:    59be        .Y      LDR      r6,[r7,r6]
        0x000011f0:    6030        0`      STR      r0,[r6,#0]
        0x000011f2:    e041        A.      B        0x1278 ; DrvSPI_Open + 952
        0x000011f4:    2a06        .*      CMP      r2,#6
        0x000011f6:    d11f        ..      BNE      0x1238 ; DrvSPI_Open + 888
        0x000011f8:    00a0        ..      LSLS     r0,r4,#2
        0x000011fa:    4e23        #N      LDR      r6,[pc,#140] ; [0x1288] = 0x20000814
        0x000011fc:    5830        0X      LDR      r0,[r6,r0]
        0x000011fe:    6800        .h      LDR      r0,[r0,#0]
        0x00001200:    2601        .&      MOVS     r6,#1
        0x00001202:    02f6        ..      LSLS     r6,r6,#11
        0x00001204:    43b0        .C      BICS     r0,r0,r6
        0x00001206:    1980        ..      ADDS     r0,r0,r6
        0x00001208:    00a6        ..      LSLS     r6,r4,#2
        0x0000120a:    4f1f        .O      LDR      r7,[pc,#124] ; [0x1288] = 0x20000814
        0x0000120c:    59be        .Y      LDR      r6,[r7,r6]
        0x0000120e:    6030        0`      STR      r0,[r6,#0]
        0x00001210:    00a0        ..      LSLS     r0,r4,#2
        0x00001212:    463e        >F      MOV      r6,r7
        0x00001214:    5830        0X      LDR      r0,[r6,r0]
        0x00001216:    6800        .h      LDR      r0,[r0,#0]
        0x00001218:    2604        .&      MOVS     r6,#4
        0x0000121a:    43b0        .C      BICS     r0,r0,r6
        0x0000121c:    00a6        ..      LSLS     r6,r4,#2
        0x0000121e:    59be        .Y      LDR      r6,[r7,r6]
        0x00001220:    6030        0`      STR      r0,[r6,#0]
        0x00001222:    00a0        ..      LSLS     r0,r4,#2
        0x00001224:    463e        >F      MOV      r6,r7
        0x00001226:    5830        0X      LDR      r0,[r6,r0]
        0x00001228:    6800        .h      LDR      r0,[r0,#0]
        0x0000122a:    2602        .&      MOVS     r6,#2
        0x0000122c:    43b0        .C      BICS     r0,r0,r6
        0x0000122e:    1c80        ..      ADDS     r0,r0,#2
        0x00001230:    00a6        ..      LSLS     r6,r4,#2
        0x00001232:    59be        .Y      LDR      r6,[r7,r6]
        0x00001234:    6030        0`      STR      r0,[r6,#0]
        0x00001236:    e01f        ..      B        0x1278 ; DrvSPI_Open + 952
        0x00001238:    00a0        ..      LSLS     r0,r4,#2
        0x0000123a:    4e13        .N      LDR      r6,[pc,#76] ; [0x1288] = 0x20000814
        0x0000123c:    5830        0X      LDR      r0,[r6,r0]
        0x0000123e:    6800        .h      LDR      r0,[r0,#0]
        0x00001240:    2601        .&      MOVS     r6,#1
        0x00001242:    02f6        ..      LSLS     r6,r6,#11
        0x00001244:    43b0        .C      BICS     r0,r0,r6
        0x00001246:    1980        ..      ADDS     r0,r0,r6
        0x00001248:    00a6        ..      LSLS     r6,r4,#2
        0x0000124a:    4f0f        .O      LDR      r7,[pc,#60] ; [0x1288] = 0x20000814
        0x0000124c:    59be        .Y      LDR      r6,[r7,r6]
        0x0000124e:    6030        0`      STR      r0,[r6,#0]
        0x00001250:    00a0        ..      LSLS     r0,r4,#2
        0x00001252:    463e        >F      MOV      r6,r7
        0x00001254:    5830        0X      LDR      r0,[r6,r0]
        0x00001256:    6800        .h      LDR      r0,[r0,#0]
        0x00001258:    2604        .&      MOVS     r6,#4
        0x0000125a:    43b0        .C      BICS     r0,r0,r6
        0x0000125c:    1d00        ..      ADDS     r0,r0,#4
        0x0000125e:    00a6        ..      LSLS     r6,r4,#2
        0x00001260:    59be        .Y      LDR      r6,[r7,r6]
        0x00001262:    6030        0`      STR      r0,[r6,#0]
        0x00001264:    00a0        ..      LSLS     r0,r4,#2
        0x00001266:    463e        >F      MOV      r6,r7
        0x00001268:    5830        0X      LDR      r0,[r6,r0]
        0x0000126a:    6800        .h      LDR      r0,[r0,#0]
        0x0000126c:    2602        .&      MOVS     r6,#2
        0x0000126e:    43b0        .C      BICS     r0,r0,r6
        0x00001270:    1c80        ..      ADDS     r0,r0,#2
        0x00001272:    00a6        ..      LSLS     r6,r4,#2
        0x00001274:    59be        .Y      LDR      r6,[r7,r6]
        0x00001276:    6030        0`      STR      r0,[r6,#0]
        0x00001278:    2000        .       MOVS     r0,#0
        0x0000127a:    e62a        *.      B        0xed2 ; DrvSPI_Open + 18
    $d
        0x0000127c:    20000c24    $..     DCD    536874020
        0x00001280:    ffff9403    ....    DCD    4294939651
        0x00001284:    50000200    ...P    DCD    1342177792
        0x00001288:    20000814    ...     DCD    536872980
    $t
    i.DrvSPI_SetClockFreq
    DrvSPI_SetClockFreq
        0x0000128c:    b5f8        ..      PUSH     {r3-r7,lr}
        0x0000128e:    4604        .F      MOV      r4,r0
        0x00001290:    460f        .F      MOV      r7,r1
        0x00001292:    4616        .F      MOV      r6,r2
        0x00001294:    f000f8aa    ....    BL       DrvSYS_GetHCLKFreq ; 0x13ec
        0x00001298:    9000        ..      STR      r0,[sp,#0]
        0x0000129a:    4d2f        /M      LDR      r5,[pc,#188] ; [0x1358] = 0xffff
        0x0000129c:    2e00        ..      CMP      r6,#0
        0x0000129e:    d01d        ..      BEQ      0x12dc ; DrvSPI_SetClockFreq + 80
        0x000012a0:    9800        ..      LDR      r0,[sp,#0]
        0x000012a2:    4286        .B      CMP      r6,r0
        0x000012a4:    d901        ..      BLS      0x12aa ; DrvSPI_SetClockFreq + 30
        0x000012a6:    2500        .%      MOVS     r5,#0
        0x000012a8:    e00a        ..      B        0x12c0 ; DrvSPI_SetClockFreq + 52
        0x000012aa:    4631        1F      MOV      r1,r6
        0x000012ac:    9800        ..      LDR      r0,[sp,#0]
        0x000012ae:    f7fff835    ..5.    BL       __aeabi_uidiv ; 0x31c
        0x000012b2:    1c40        @.      ADDS     r0,r0,#1
        0x000012b4:    0840        @.      LSRS     r0,r0,#1
        0x000012b6:    1e45        E.      SUBS     r5,r0,#1
        0x000012b8:    4827        'H      LDR      r0,[pc,#156] ; [0x1358] = 0xffff
        0x000012ba:    4285        .B      CMP      r5,r0
        0x000012bc:    d900        ..      BLS      0x12c0 ; DrvSPI_SetClockFreq + 52
        0x000012be:    4605        .F      MOV      r5,r0
        0x000012c0:    00a0        ..      LSLS     r0,r4,#2
        0x000012c2:    4926        &I      LDR      r1,[pc,#152] ; [0x135c] = 0x20000814
        0x000012c4:    5808        .X      LDR      r0,[r1,r0]
        0x000012c6:    6840        @h      LDR      r0,[r0,#4]
        0x000012c8:    b280        ..      UXTH     r0,r0
        0x000012ca:    0429        ).      LSLS     r1,r5,#16
        0x000012cc:    0c09        ..      LSRS     r1,r1,#16
        0x000012ce:    0409        ..      LSLS     r1,r1,#16
        0x000012d0:    4308        .C      ORRS     r0,r0,r1
        0x000012d2:    00a1        ..      LSLS     r1,r4,#2
        0x000012d4:    4a21        !J      LDR      r2,[pc,#132] ; [0x135c] = 0x20000814
        0x000012d6:    5851        QX      LDR      r1,[r2,r1]
        0x000012d8:    6048        H`      STR      r0,[r1,#4]
        0x000012da:    e00b        ..      B        0x12f4 ; DrvSPI_SetClockFreq + 104
        0x000012dc:    00a0        ..      LSLS     r0,r4,#2
        0x000012de:    491f        .I      LDR      r1,[pc,#124] ; [0x135c] = 0x20000814
        0x000012e0:    5808        .X      LDR      r0,[r1,r0]
        0x000012e2:    6840        @h      LDR      r0,[r0,#4]
        0x000012e4:    b280        ..      UXTH     r0,r0
        0x000012e6:    2101        .!      MOVS     r1,#1
        0x000012e8:    0409        ..      LSLS     r1,r1,#16
        0x000012ea:    1a40        @.      SUBS     r0,r0,r1
        0x000012ec:    00a1        ..      LSLS     r1,r4,#2
        0x000012ee:    4a1b        .J      LDR      r2,[pc,#108] ; [0x135c] = 0x20000814
        0x000012f0:    5851        QX      LDR      r1,[r2,r1]
        0x000012f2:    6048        H`      STR      r0,[r1,#4]
        0x000012f4:    2f00        ./      CMP      r7,#0
        0x000012f6:    d01c        ..      BEQ      0x1332 ; DrvSPI_SetClockFreq + 166
        0x000012f8:    9800        ..      LDR      r0,[sp,#0]
        0x000012fa:    4287        .B      CMP      r7,r0
        0x000012fc:    d901        ..      BLS      0x1302 ; DrvSPI_SetClockFreq + 118
        0x000012fe:    2500        .%      MOVS     r5,#0
        0x00001300:    e00a        ..      B        0x1318 ; DrvSPI_SetClockFreq + 140
        0x00001302:    4639        9F      MOV      r1,r7
        0x00001304:    9800        ..      LDR      r0,[sp,#0]
        0x00001306:    f7fff809    ....    BL       __aeabi_uidiv ; 0x31c
        0x0000130a:    1c40        @.      ADDS     r0,r0,#1
        0x0000130c:    0840        @.      LSRS     r0,r0,#1
        0x0000130e:    1e45        E.      SUBS     r5,r0,#1
        0x00001310:    4811        .H      LDR      r0,[pc,#68] ; [0x1358] = 0xffff
        0x00001312:    4285        .B      CMP      r5,r0
        0x00001314:    d900        ..      BLS      0x1318 ; DrvSPI_SetClockFreq + 140
        0x00001316:    4605        .F      MOV      r5,r0
        0x00001318:    00a0        ..      LSLS     r0,r4,#2
        0x0000131a:    4910        .I      LDR      r1,[pc,#64] ; [0x135c] = 0x20000814
        0x0000131c:    5808        .X      LDR      r0,[r1,r0]
        0x0000131e:    6840        @h      LDR      r0,[r0,#4]
        0x00001320:    0c00        ..      LSRS     r0,r0,#16
        0x00001322:    0400        ..      LSLS     r0,r0,#16
        0x00001324:    b2a9        ..      UXTH     r1,r5
        0x00001326:    4308        .C      ORRS     r0,r0,r1
        0x00001328:    00a1        ..      LSLS     r1,r4,#2
        0x0000132a:    4a0c        .J      LDR      r2,[pc,#48] ; [0x135c] = 0x20000814
        0x0000132c:    5851        QX      LDR      r1,[r2,r1]
        0x0000132e:    6048        H`      STR      r0,[r1,#4]
        0x00001330:    e00b        ..      B        0x134a ; DrvSPI_SetClockFreq + 190
        0x00001332:    00a0        ..      LSLS     r0,r4,#2
        0x00001334:    4909        .I      LDR      r1,[pc,#36] ; [0x135c] = 0x20000814
        0x00001336:    5808        .X      LDR      r0,[r1,r0]
        0x00001338:    6840        @h      LDR      r0,[r0,#4]
        0x0000133a:    0c00        ..      LSRS     r0,r0,#16
        0x0000133c:    0400        ..      LSLS     r0,r0,#16
        0x0000133e:    4906        .I      LDR      r1,[pc,#24] ; [0x1358] = 0xffff
        0x00001340:    1840        @.      ADDS     r0,r0,r1
        0x00001342:    00a1        ..      LSLS     r1,r4,#2
        0x00001344:    4a05        .J      LDR      r2,[pc,#20] ; [0x135c] = 0x20000814
        0x00001346:    5851        QX      LDR      r1,[r2,r1]
        0x00001348:    6048        H`      STR      r0,[r1,#4]
        0x0000134a:    1c68        h.      ADDS     r0,r5,#1
        0x0000134c:    0041        A.      LSLS     r1,r0,#1
        0x0000134e:    9800        ..      LDR      r0,[sp,#0]
        0x00001350:    f7feffe4    ....    BL       __aeabi_uidiv ; 0x31c
        0x00001354:    bdf8        ..      POP      {r3-r7,pc}
    $d
        0x00001356:    0000        ..      DCW    0
        0x00001358:    0000ffff    ....    DCD    65535
        0x0000135c:    20000814    ...     DCD    536872980
    $t
    i.DrvSPI_SetEndian
    DrvSPI_SetEndian
        0x00001360:    b510        ..      PUSH     {r4,lr}
        0x00001362:    2900        .)      CMP      r1,#0
        0x00001364:    d10c        ..      BNE      0x1380 ; DrvSPI_SetEndian + 32
        0x00001366:    0082        ..      LSLS     r2,r0,#2
        0x00001368:    4b0b        .K      LDR      r3,[pc,#44] ; [0x1398] = 0x20000814
        0x0000136a:    589a        .X      LDR      r2,[r3,r2]
        0x0000136c:    6812        .h      LDR      r2,[r2,#0]
        0x0000136e:    2301        .#      MOVS     r3,#1
        0x00001370:    029b        ..      LSLS     r3,r3,#10
        0x00001372:    439a        .C      BICS     r2,r2,r3
        0x00001374:    18d2        ..      ADDS     r2,r2,r3
        0x00001376:    0083        ..      LSLS     r3,r0,#2
        0x00001378:    4c07        .L      LDR      r4,[pc,#28] ; [0x1398] = 0x20000814
        0x0000137a:    58e3        .X      LDR      r3,[r4,r3]
        0x0000137c:    601a        .`      STR      r2,[r3,#0]
        0x0000137e:    e00a        ..      B        0x1396 ; DrvSPI_SetEndian + 54
        0x00001380:    0082        ..      LSLS     r2,r0,#2
        0x00001382:    4b05        .K      LDR      r3,[pc,#20] ; [0x1398] = 0x20000814
        0x00001384:    589a        .X      LDR      r2,[r3,r2]
        0x00001386:    6812        .h      LDR      r2,[r2,#0]
        0x00001388:    2301        .#      MOVS     r3,#1
        0x0000138a:    029b        ..      LSLS     r3,r3,#10
        0x0000138c:    439a        .C      BICS     r2,r2,r3
        0x0000138e:    0083        ..      LSLS     r3,r0,#2
        0x00001390:    4c01        .L      LDR      r4,[pc,#4] ; [0x1398] = 0x20000814
        0x00001392:    58e3        .X      LDR      r3,[r4,r3]
        0x00001394:    601a        .`      STR      r2,[r3,#0]
        0x00001396:    bd10        ..      POP      {r4,pc}
    $d
        0x00001398:    20000814    ...     DCD    536872980
    $t
    i.DrvSPI_SetSlaveSelectActiveLevel
    DrvSPI_SetSlaveSelectActiveLevel
        0x0000139c:    b510        ..      PUSH     {r4,lr}
        0x0000139e:    0082        ..      LSLS     r2,r0,#2
        0x000013a0:    4b06        .K      LDR      r3,[pc,#24] ; [0x13bc] = 0x20000814
        0x000013a2:    589a        .X      LDR      r2,[r3,r2]
        0x000013a4:    6892        .h      LDR      r2,[r2,#8]
        0x000013a6:    2304        .#      MOVS     r3,#4
        0x000013a8:    439a        .C      BICS     r2,r2,r3
        0x000013aa:    008b        ..      LSLS     r3,r1,#2
        0x000013ac:    2404        .$      MOVS     r4,#4
        0x000013ae:    4023        #@      ANDS     r3,r3,r4
        0x000013b0:    431a        .C      ORRS     r2,r2,r3
        0x000013b2:    0083        ..      LSLS     r3,r0,#2
        0x000013b4:    4c01        .L      LDR      r4,[pc,#4] ; [0x13bc] = 0x20000814
        0x000013b6:    58e3        .X      LDR      r3,[r4,r3]
        0x000013b8:    609a        .`      STR      r2,[r3,#8]
        0x000013ba:    bd10        ..      POP      {r4,pc}
    $d
        0x000013bc:    20000814    ...     DCD    536872980
    $t
    i.DrvSYS_Delay
    DrvSYS_Delay
        0x000013c0:    4908        .I      LDR      r1,[pc,#32] ; [0x13e4] = 0x20000004
        0x000013c2:    6809        .h      LDR      r1,[r1,#0]
        0x000013c4:    4341        AC      MULS     r1,r0,r1
        0x000013c6:    4a08        .J      LDR      r2,[pc,#32] ; [0x13e8] = 0xe000e000
        0x000013c8:    6151        Qa      STR      r1,[r2,#0x14]
        0x000013ca:    2100        .!      MOVS     r1,#0
        0x000013cc:    6191        .a      STR      r1,[r2,#0x18]
        0x000013ce:    2105        .!      MOVS     r1,#5
        0x000013d0:    6111        .a      STR      r1,[r2,#0x10]
        0x000013d2:    bf00        ..      NOP      
        0x000013d4:    4904        .I      LDR      r1,[pc,#16] ; [0x13e8] = 0xe000e000
        0x000013d6:    6909        .i      LDR      r1,[r1,#0x10]
        0x000013d8:    2201        ."      MOVS     r2,#1
        0x000013da:    0412        ..      LSLS     r2,r2,#16
        0x000013dc:    4011        .@      ANDS     r1,r1,r2
        0x000013de:    2900        .)      CMP      r1,#0
        0x000013e0:    d0f8        ..      BEQ      0x13d4 ; DrvSYS_Delay + 20
        0x000013e2:    4770        pG      BX       lr
    $d
        0x000013e4:    20000004    ...     DCD    536870916
        0x000013e8:    e000e000    ....    DCD    3758153728
    $t
    i.DrvSYS_GetHCLKFreq
    DrvSYS_GetHCLKFreq
        0x000013ec:    b570        p.      PUSH     {r4-r6,lr}
        0x000013ee:    2500        .%      MOVS     r5,#0
        0x000013f0:    4816        .H      LDR      r0,[pc,#88] ; [0x144c] = 0x50000200
        0x000013f2:    6900        .i      LDR      r0,[r0,#0x10]
        0x000013f4:    0740        @.      LSLS     r0,r0,#29
        0x000013f6:    0f40        @.      LSRS     r0,r0,#29
        0x000013f8:    2800        .(      CMP      r0,#0
        0x000013fa:    d101        ..      BNE      0x1400 ; DrvSYS_GetHCLKFreq + 20
        0x000013fc:    4d14        .M      LDR      r5,[pc,#80] ; [0x1450] = 0xb71b00
        0x000013fe:    e01a        ..      B        0x1436 ; DrvSYS_GetHCLKFreq + 74
        0x00001400:    4812        .H      LDR      r0,[pc,#72] ; [0x144c] = 0x50000200
        0x00001402:    6900        .i      LDR      r0,[r0,#0x10]
        0x00001404:    0740        @.      LSLS     r0,r0,#29
        0x00001406:    0f40        @.      LSRS     r0,r0,#29
        0x00001408:    2801        .(      CMP      r0,#1
        0x0000140a:    d101        ..      BNE      0x1410 ; DrvSYS_GetHCLKFreq + 36
        0x0000140c:    03c5        ..      LSLS     r5,r0,#15
        0x0000140e:    e012        ..      B        0x1436 ; DrvSYS_GetHCLKFreq + 74
        0x00001410:    480e        .H      LDR      r0,[pc,#56] ; [0x144c] = 0x50000200
        0x00001412:    6900        .i      LDR      r0,[r0,#0x10]
        0x00001414:    0740        @.      LSLS     r0,r0,#29
        0x00001416:    0f40        @.      LSRS     r0,r0,#29
        0x00001418:    2802        .(      CMP      r0,#2
        0x0000141a:    d103        ..      BNE      0x1424 ; DrvSYS_GetHCLKFreq + 56
        0x0000141c:    f000f81e    ....    BL       DrvSYS_GetPLLClockFreq ; 0x145c
        0x00001420:    4605        .F      MOV      r5,r0
        0x00001422:    e008        ..      B        0x1436 ; DrvSYS_GetHCLKFreq + 74
        0x00001424:    4809        .H      LDR      r0,[pc,#36] ; [0x144c] = 0x50000200
        0x00001426:    6900        .i      LDR      r0,[r0,#0x10]
        0x00001428:    0740        @.      LSLS     r0,r0,#29
        0x0000142a:    0f40        @.      LSRS     r0,r0,#29
        0x0000142c:    2803        .(      CMP      r0,#3
        0x0000142e:    d101        ..      BNE      0x1434 ; DrvSYS_GetHCLKFreq + 72
        0x00001430:    4d08        .M      LDR      r5,[pc,#32] ; [0x1454] = 0x2710
        0x00001432:    e000        ..      B        0x1436 ; DrvSYS_GetHCLKFreq + 74
        0x00001434:    4d08        .M      LDR      r5,[pc,#32] ; [0x1458] = 0x1518000
        0x00001436:    4805        .H      LDR      r0,[pc,#20] ; [0x144c] = 0x50000200
        0x00001438:    6980        .i      LDR      r0,[r0,#0x18]
        0x0000143a:    0700        ..      LSLS     r0,r0,#28
        0x0000143c:    0f00        ..      LSRS     r0,r0,#28
        0x0000143e:    1c44        D.      ADDS     r4,r0,#1
        0x00001440:    4621        !F      MOV      r1,r4
        0x00001442:    4628        (F      MOV      r0,r5
        0x00001444:    f7feff6a    ..j.    BL       __aeabi_uidiv ; 0x31c
        0x00001448:    bd70        p.      POP      {r4-r6,pc}
    $d
        0x0000144a:    0000        ..      DCW    0
        0x0000144c:    50000200    ...P    DCD    1342177792
        0x00001450:    00b71b00    ....    DCD    12000000
        0x00001454:    00002710    .'..    DCD    10000
        0x00001458:    01518000    ..Q.    DCD    22118400
    $t
    i.DrvSYS_GetPLLClockFreq
    DrvSYS_GetPLLClockFreq
        0x0000145c:    b57f        ..      PUSH     {r0-r6,lr}
        0x0000145e:    2500        .%      MOVS     r5,#0
        0x00001460:    4b18        .K      LDR      r3,[pc,#96] ; [0x14c4] = 0x1ea8
        0x00001462:    cb0f        ..      LDM      r3,{r0-r3}
        0x00001464:    466c        lF      MOV      r4,sp
        0x00001466:    c40f        ..      STM      r4!,{r0-r3}
        0x00001468:    4817        .H      LDR      r0,[pc,#92] ; [0x14c8] = 0x50000200
        0x0000146a:    6a00        .j      LDR      r0,[r0,#0x20]
        0x0000146c:    0300        ..      LSLS     r0,r0,#12
        0x0000146e:    0fc0        ..      LSRS     r0,r0,#31
        0x00001470:    2800        .(      CMP      r0,#0
        0x00001472:    d001        ..      BEQ      0x1478 ; DrvSYS_GetPLLClockFreq + 28
        0x00001474:    4c15        .L      LDR      r4,[pc,#84] ; [0x14cc] = 0x1518000
        0x00001476:    e000        ..      B        0x147a ; DrvSYS_GetPLLClockFreq + 30
        0x00001478:    4c15        .L      LDR      r4,[pc,#84] ; [0x14d0] = 0xb71b00
        0x0000147a:    4813        .H      LDR      r0,[pc,#76] ; [0x14c8] = 0x50000200
        0x0000147c:    6a00        .j      LDR      r0,[r0,#0x20]
        0x0000147e:    03c0        ..      LSLS     r0,r0,#15
        0x00001480:    0fc0        ..      LSRS     r0,r0,#31
        0x00001482:    2800        .(      CMP      r0,#0
        0x00001484:    d001        ..      BEQ      0x148a ; DrvSYS_GetPLLClockFreq + 46
        0x00001486:    2500        .%      MOVS     r5,#0
        0x00001488:    e019        ..      B        0x14be ; DrvSYS_GetPLLClockFreq + 98
        0x0000148a:    4a0f        .J      LDR      r2,[pc,#60] ; [0x14c8] = 0x50000200
        0x0000148c:    6a12        .j      LDR      r2,[r2,#0x20]
        0x0000148e:    0492        ..      LSLS     r2,r2,#18
        0x00001490:    0ed2        ..      LSRS     r2,r2,#27
        0x00001492:    1c91        ..      ADDS     r1,r2,#2
        0x00001494:    4a0c        .J      LDR      r2,[pc,#48] ; [0x14c8] = 0x50000200
        0x00001496:    6a12        .j      LDR      r2,[r2,#0x20]
        0x00001498:    05d2        ..      LSLS     r2,r2,#23
        0x0000149a:    0dd2        ..      LSRS     r2,r2,#23
        0x0000149c:    1c92        ..      ADDS     r2,r2,#2
        0x0000149e:    4362        bC      MULS     r2,r4,r2
        0x000014a0:    4610        .F      MOV      r0,r2
        0x000014a2:    f7feff3b    ..;.    BL       __aeabi_uidiv ; 0x31c
        0x000014a6:    4606        .F      MOV      r6,r0
        0x000014a8:    4807        .H      LDR      r0,[pc,#28] ; [0x14c8] = 0x50000200
        0x000014aa:    6a00        .j      LDR      r0,[r0,#0x20]
        0x000014ac:    0400        ..      LSLS     r0,r0,#16
        0x000014ae:    0f80        ..      LSRS     r0,r0,#30
        0x000014b0:    0080        ..      LSLS     r0,r0,#2
        0x000014b2:    466a        jF      MOV      r2,sp
        0x000014b4:    5811        .X      LDR      r1,[r2,r0]
        0x000014b6:    4630        0F      MOV      r0,r6
        0x000014b8:    f7feff30    ..0.    BL       __aeabi_uidiv ; 0x31c
        0x000014bc:    4605        .F      MOV      r5,r0
        0x000014be:    4628        (F      MOV      r0,r5
        0x000014c0:    b004        ..      ADD      sp,sp,#0x10
        0x000014c2:    bd70        p.      POP      {r4-r6,pc}
    $d
        0x000014c4:    00001ea8    ....    DCD    7848
        0x000014c8:    50000200    ...P    DCD    1342177792
        0x000014cc:    01518000    ..Q.    DCD    22118400
        0x000014d0:    00b71b00    ....    DCD    12000000
    $t
    i.DrvSYS_GetPLLContent
    DrvSYS_GetPLLContent
        0x000014d4:    b5f3        ..      PUSH     {r0,r1,r4-r7,lr}
        0x000014d6:    b083        ..      SUB      sp,sp,#0xc
        0x000014d8:    460c        .F      MOV      r4,r1
        0x000014da:    4828        (H      LDR      r0,[pc,#160] ; [0x157c] = 0xb71b00
        0x000014dc:    9002        ..      STR      r0,[sp,#8]
        0x000014de:    2000        .       MOVS     r0,#0
        0x000014e0:    9001        ..      STR      r0,[sp,#4]
        0x000014e2:    4827        'H      LDR      r0,[pc,#156] ; [0x1580] = 0xbebc200
        0x000014e4:    4284        .B      CMP      r4,r0
        0x000014e6:    d804        ..      BHI      0x14f2 ; DrvSYS_GetPLLContent + 30
        0x000014e8:    1040        @.      ASRS     r0,r0,#1
        0x000014ea:    4284        .B      CMP      r4,r0
        0x000014ec:    d901        ..      BLS      0x14f2 ; DrvSYS_GetPLLContent + 30
        0x000014ee:    2700        .'      MOVS     r7,#0
        0x000014f0:    e014        ..      B        0x151c ; DrvSYS_GetPLLContent + 72
        0x000014f2:    4824        $H      LDR      r0,[pc,#144] ; [0x1584] = 0x5f5e100
        0x000014f4:    4284        .B      CMP      r4,r0
        0x000014f6:    d805        ..      BHI      0x1504 ; DrvSYS_GetPLLContent + 48
        0x000014f8:    1040        @.      ASRS     r0,r0,#1
        0x000014fa:    4284        .B      CMP      r4,r0
        0x000014fc:    d902        ..      BLS      0x1504 ; DrvSYS_GetPLLContent + 48
        0x000014fe:    2701        .'      MOVS     r7,#1
        0x00001500:    0064        d.      LSLS     r4,r4,#1
        0x00001502:    e00b        ..      B        0x151c ; DrvSYS_GetPLLContent + 72
        0x00001504:    4820         H      LDR      r0,[pc,#128] ; [0x1588] = 0x2faf080
        0x00001506:    4284        .B      CMP      r4,r0
        0x00001508:    d805        ..      BHI      0x1516 ; DrvSYS_GetPLLContent + 66
        0x0000150a:    1040        @.      ASRS     r0,r0,#1
        0x0000150c:    4284        .B      CMP      r4,r0
        0x0000150e:    d302        ..      BCC      0x1516 ; DrvSYS_GetPLLContent + 66
        0x00001510:    2703        .'      MOVS     r7,#3
        0x00001512:    00a4        ..      LSLS     r4,r4,#2
        0x00001514:    e002        ..      B        0x151c ; DrvSYS_GetPLLContent + 72
        0x00001516:    481d        .H      LDR      r0,[pc,#116] ; [0x158c] = 0xc22e
        0x00001518:    b005        ..      ADD      sp,sp,#0x14
        0x0000151a:    bdf0        ..      POP      {r4-r7,pc}
        0x0000151c:    9803        ..      LDR      r0,[sp,#0xc]
        0x0000151e:    2800        .(      CMP      r0,#0
        0x00001520:    d102        ..      BNE      0x1528 ; DrvSYS_GetPLLContent + 84
        0x00001522:    4816        .H      LDR      r0,[pc,#88] ; [0x157c] = 0xb71b00
        0x00001524:    9002        ..      STR      r0,[sp,#8]
        0x00001526:    e004        ..      B        0x1532 ; DrvSYS_GetPLLContent + 94
        0x00001528:    9803        ..      LDR      r0,[sp,#0xc]
        0x0000152a:    2801        .(      CMP      r0,#1
        0x0000152c:    d101        ..      BNE      0x1532 ; DrvSYS_GetPLLContent + 94
        0x0000152e:    4818        .H      LDR      r0,[pc,#96] ; [0x1590] = 0x1518000
        0x00001530:    9002        ..      STR      r0,[sp,#8]
        0x00001532:    4918        .I      LDR      r1,[pc,#96] ; [0x1594] = 0xf4240
        0x00001534:    4620         F      MOV      r0,r4
        0x00001536:    f7fefef1    ....    BL       __aeabi_uidiv ; 0x31c
        0x0000153a:    4606        .F      MOV      r6,r0
        0x0000153c:    4915        .I      LDR      r1,[pc,#84] ; [0x1594] = 0xf4240
        0x0000153e:    9802        ..      LDR      r0,[sp,#8]
        0x00001540:    f7fefeec    ....    BL       __aeabi_uidiv ; 0x31c
        0x00001544:    4605        .F      MOV      r5,r0
        0x00001546:    e00e        ..      B        0x1566 ; DrvSYS_GetPLLContent + 146
        0x00001548:    07e8        ..      LSLS     r0,r5,#31
        0x0000154a:    0fc0        ..      LSRS     r0,r0,#31
        0x0000154c:    2800        .(      CMP      r0,#0
        0x0000154e:    d107        ..      BNE      0x1560 ; DrvSYS_GetPLLContent + 140
        0x00001550:    07f0        ..      LSLS     r0,r6,#31
        0x00001552:    0fc0        ..      LSRS     r0,r0,#31
        0x00001554:    2800        .(      CMP      r0,#0
        0x00001556:    d103        ..      BNE      0x1560 ; DrvSYS_GetPLLContent + 140
        0x00001558:    2d02        .-      CMP      r5,#2
        0x0000155a:    d001        ..      BEQ      0x1560 ; DrvSYS_GetPLLContent + 140
        0x0000155c:    2e02        ..      CMP      r6,#2
        0x0000155e:    d100        ..      BNE      0x1562 ; DrvSYS_GetPLLContent + 142
        0x00001560:    e002        ..      B        0x1568 ; DrvSYS_GetPLLContent + 148
        0x00001562:    086d        m.      LSRS     r5,r5,#1
        0x00001564:    0876        v.      LSRS     r6,r6,#1
        0x00001566:    e7ef        ..      B        0x1548 ; DrvSYS_GetPLLContent + 116
        0x00001568:    bf00        ..      NOP      
        0x0000156a:    03b8        ..      LSLS     r0,r7,#14
        0x0000156c:    1ea9        ..      SUBS     r1,r5,#2
        0x0000156e:    0249        I.      LSLS     r1,r1,#9
        0x00001570:    4308        .C      ORRS     r0,r0,r1
        0x00001572:    1eb1        ..      SUBS     r1,r6,#2
        0x00001574:    4308        .C      ORRS     r0,r0,r1
        0x00001576:    9001        ..      STR      r0,[sp,#4]
        0x00001578:    9801        ..      LDR      r0,[sp,#4]
        0x0000157a:    e7cd        ..      B        0x1518 ; DrvSYS_GetPLLContent + 68
    $d
        0x0000157c:    00b71b00    ....    DCD    12000000
        0x00001580:    0bebc200    ....    DCD    200000000
        0x00001584:    05f5e100    ....    DCD    100000000
        0x00001588:    02faf080    ....    DCD    50000000
        0x0000158c:    0000c22e    ....    DCD    49710
        0x00001590:    01518000    ..Q.    DCD    22118400
        0x00001594:    000f4240    @B..    DCD    1000000
    $t
    i.DrvSYS_IsProtectedRegLocked
    DrvSYS_IsProtectedRegLocked
        0x00001598:    4802        .H      LDR      r0,[pc,#8] ; [0x15a4] = 0x50000100
        0x0000159a:    6800        .h      LDR      r0,[r0,#0]
        0x0000159c:    07c0        ..      LSLS     r0,r0,#31
        0x0000159e:    0fc0        ..      LSRS     r0,r0,#31
        0x000015a0:    4770        pG      BX       lr
    $d
        0x000015a2:    0000        ..      DCW    0
        0x000015a4:    50000100    ...P    DCD    1342177536
    $t
    i.DrvSYS_Open
    DrvSYS_Open
        0x000015a8:    b5f8        ..      PUSH     {r3-r7,lr}
        0x000015aa:    4604        .F      MOV      r4,r0
        0x000015ac:    2500        .%      MOVS     r5,#0
        0x000015ae:    482a        *H      LDR      r0,[pc,#168] ; [0x1658] = 0x2faf080
        0x000015b0:    4284        .B      CMP      r4,r0
        0x000015b2:    d802        ..      BHI      0x15ba ; DrvSYS_Open + 18
        0x000015b4:    1040        @.      ASRS     r0,r0,#1
        0x000015b6:    4284        .B      CMP      r4,r0
        0x000015b8:    d201        ..      BCS      0x15be ; DrvSYS_Open + 22
        0x000015ba:    4828        (H      LDR      r0,[pc,#160] ; [0x165c] = 0xffff9606
        0x000015bc:    bdf8        ..      POP      {r3-r7,pc}
        0x000015be:    f7ffffeb    ....    BL       DrvSYS_IsProtectedRegLocked ; 0x1598
        0x000015c2:    2800        .(      CMP      r0,#0
        0x000015c4:    d102        ..      BNE      0x15cc ; DrvSYS_Open + 36
        0x000015c6:    4825        %H      LDR      r0,[pc,#148] ; [0x165c] = 0xffff9606
        0x000015c8:    1c40        @.      ADDS     r0,r0,#1
        0x000015ca:    e7f7        ..      B        0x15bc ; DrvSYS_Open + 20
        0x000015cc:    4824        $H      LDR      r0,[pc,#144] ; [0x1660] = 0x50000200
        0x000015ce:    6a00        .j      LDR      r0,[r0,#0x20]
        0x000015d0:    0300        ..      LSLS     r0,r0,#12
        0x000015d2:    0fc0        ..      LSRS     r0,r0,#31
        0x000015d4:    2800        .(      CMP      r0,#0
        0x000015d6:    d108        ..      BNE      0x15ea ; DrvSYS_Open + 66
        0x000015d8:    4821        !H      LDR      r0,[pc,#132] ; [0x1660] = 0x50000200
        0x000015da:    6800        .h      LDR      r0,[r0,#0]
        0x000015dc:    0840        @.      LSRS     r0,r0,#1
        0x000015de:    0040        @.      LSLS     r0,r0,#1
        0x000015e0:    1c40        @.      ADDS     r0,r0,#1
        0x000015e2:    491f        .I      LDR      r1,[pc,#124] ; [0x1660] = 0x50000200
        0x000015e4:    6008        .`      STR      r0,[r1,#0]
        0x000015e6:    2500        .%      MOVS     r5,#0
        0x000015e8:    e007        ..      B        0x15fa ; DrvSYS_Open + 82
        0x000015ea:    481d        .H      LDR      r0,[pc,#116] ; [0x1660] = 0x50000200
        0x000015ec:    6800        .h      LDR      r0,[r0,#0]
        0x000015ee:    2104        .!      MOVS     r1,#4
        0x000015f0:    4388        .C      BICS     r0,r0,r1
        0x000015f2:    1d00        ..      ADDS     r0,r0,#4
        0x000015f4:    491a        .I      LDR      r1,[pc,#104] ; [0x1660] = 0x50000200
        0x000015f6:    6008        .`      STR      r0,[r1,#0]
        0x000015f8:    2501        .%      MOVS     r5,#1
        0x000015fa:    4621        !F      MOV      r1,r4
        0x000015fc:    4628        (F      MOV      r0,r5
        0x000015fe:    f7ffff69    ..i.    BL       DrvSYS_GetPLLContent ; 0x14d4
        0x00001602:    4606        .F      MOV      r6,r0
        0x00001604:    2000        .       MOVS     r0,#0
        0x00001606:    9000        ..      STR      r0,[sp,#0]
        0x00001608:    e002        ..      B        0x1610 ; DrvSYS_Open + 104
        0x0000160a:    9800        ..      LDR      r0,[sp,#0]
        0x0000160c:    1c40        @.      ADDS     r0,r0,#1
        0x0000160e:    9000        ..      STR      r0,[sp,#0]
        0x00001610:    4914        .I      LDR      r1,[pc,#80] ; [0x1664] = 0x2710
        0x00001612:    9800        ..      LDR      r0,[sp,#0]
        0x00001614:    4288        .B      CMP      r0,r1
        0x00001616:    d3f8        ..      BCC      0x160a ; DrvSYS_Open + 98
        0x00001618:    4630        0F      MOV      r0,r6
        0x0000161a:    f000f841    ..A.    BL       DrvSYS_SetPLLContent ; 0x16a0
        0x0000161e:    4810        .H      LDR      r0,[pc,#64] ; [0x1660] = 0x50000200
        0x00001620:    6a00        .j      LDR      r0,[r0,#0x20]
        0x00001622:    2101        .!      MOVS     r1,#1
        0x00001624:    0489        ..      LSLS     r1,r1,#18
        0x00001626:    4388        .C      BICS     r0,r0,r1
        0x00001628:    490d        .I      LDR      r1,[pc,#52] ; [0x1660] = 0x50000200
        0x0000162a:    6208        .b      STR      r0,[r1,#0x20]
        0x0000162c:    4608        .F      MOV      r0,r1
        0x0000162e:    6a00        .j      LDR      r0,[r0,#0x20]
        0x00001630:    01c9        ..      LSLS     r1,r1,#7
        0x00001632:    4388        .C      BICS     r0,r0,r1
        0x00001634:    490a        .I      LDR      r1,[pc,#40] ; [0x1660] = 0x50000200
        0x00001636:    6208        .b      STR      r0,[r1,#0x20]
        0x00001638:    2000        .       MOVS     r0,#0
        0x0000163a:    9000        ..      STR      r0,[sp,#0]
        0x0000163c:    e002        ..      B        0x1644 ; DrvSYS_Open + 156
        0x0000163e:    9800        ..      LDR      r0,[sp,#0]
        0x00001640:    1c40        @.      ADDS     r0,r0,#1
        0x00001642:    9000        ..      STR      r0,[sp,#0]
        0x00001644:    4907        .I      LDR      r1,[pc,#28] ; [0x1664] = 0x2710
        0x00001646:    9800        ..      LDR      r0,[sp,#0]
        0x00001648:    4288        .B      CMP      r0,r1
        0x0000164a:    d3f8        ..      BCC      0x163e ; DrvSYS_Open + 150
        0x0000164c:    2002        .       MOVS     r0,#2
        0x0000164e:    f000f80b    ....    BL       DrvSYS_SelectHCLKSource ; 0x1668
        0x00001652:    2000        .       MOVS     r0,#0
        0x00001654:    e7b2        ..      B        0x15bc ; DrvSYS_Open + 20
    $d
        0x00001656:    0000        ..      DCW    0
        0x00001658:    02faf080    ....    DCD    50000000
        0x0000165c:    ffff9606    ....    DCD    4294940166
        0x00001660:    50000200    ...P    DCD    1342177792
        0x00001664:    00002710    .'..    DCD    10000
    $t
    i.DrvSYS_SelectHCLKSource
    DrvSYS_SelectHCLKSource
        0x00001668:    b510        ..      PUSH     {r4,lr}
        0x0000166a:    4604        .F      MOV      r4,r0
        0x0000166c:    2c07        .,      CMP      r4,#7
        0x0000166e:    dc03        ..      BGT      0x1678 ; DrvSYS_SelectHCLKSource + 16
        0x00001670:    2c03        .,      CMP      r4,#3
        0x00001672:    dd03        ..      BLE      0x167c ; DrvSYS_SelectHCLKSource + 20
        0x00001674:    2c07        .,      CMP      r4,#7
        0x00001676:    da01        ..      BGE      0x167c ; DrvSYS_SelectHCLKSource + 20
        0x00001678:    4807        .H      LDR      r0,[pc,#28] ; [0x1698] = 0xffff9603
        0x0000167a:    bd10        ..      POP      {r4,pc}
        0x0000167c:    4807        .H      LDR      r0,[pc,#28] ; [0x169c] = 0x50000200
        0x0000167e:    6900        .i      LDR      r0,[r0,#0x10]
        0x00001680:    08c0        ..      LSRS     r0,r0,#3
        0x00001682:    00c0        ..      LSLS     r0,r0,#3
        0x00001684:    0761        a.      LSLS     r1,r4,#29
        0x00001686:    0f49        I.      LSRS     r1,r1,#29
        0x00001688:    4308        .C      ORRS     r0,r0,r1
        0x0000168a:    4904        .I      LDR      r1,[pc,#16] ; [0x169c] = 0x50000200
        0x0000168c:    6108        .a      STR      r0,[r1,#0x10]
        0x0000168e:    f000f9c5    ....    BL       SystemCoreClockUpdate ; 0x1a1c
        0x00001692:    2000        .       MOVS     r0,#0
        0x00001694:    e7f1        ..      B        0x167a ; DrvSYS_SelectHCLKSource + 18
    $d
        0x00001696:    0000        ..      DCW    0
        0x00001698:    ffff9603    ....    DCD    4294940163
        0x0000169c:    50000200    ...P    DCD    1342177792
    $t
    i.DrvSYS_SetPLLContent
    DrvSYS_SetPLLContent
        0x000016a0:    4911        .I      LDR      r1,[pc,#68] ; [0x16e8] = 0x50000200
        0x000016a2:    6a09        .j      LDR      r1,[r1,#0x20]
        0x000016a4:    0a49        I.      LSRS     r1,r1,#9
        0x000016a6:    0249        I.      LSLS     r1,r1,#9
        0x000016a8:    05c2        ..      LSLS     r2,r0,#23
        0x000016aa:    0dd2        ..      LSRS     r2,r2,#23
        0x000016ac:    4311        .C      ORRS     r1,r1,r2
        0x000016ae:    4a0e        .J      LDR      r2,[pc,#56] ; [0x16e8] = 0x50000200
        0x000016b0:    6211        .b      STR      r1,[r2,#0x20]
        0x000016b2:    4611        .F      MOV      r1,r2
        0x000016b4:    6a09        .j      LDR      r1,[r1,#0x20]
        0x000016b6:    221f        ."      MOVS     r2,#0x1f
        0x000016b8:    0252        R.      LSLS     r2,r2,#9
        0x000016ba:    4391        .C      BICS     r1,r1,r2
        0x000016bc:    0a42        B.      LSRS     r2,r0,#9
        0x000016be:    0252        R.      LSLS     r2,r2,#9
        0x000016c0:    231f        .#      MOVS     r3,#0x1f
        0x000016c2:    025b        [.      LSLS     r3,r3,#9
        0x000016c4:    401a        .@      ANDS     r2,r2,r3
        0x000016c6:    4311        .C      ORRS     r1,r1,r2
        0x000016c8:    4a07        .J      LDR      r2,[pc,#28] ; [0x16e8] = 0x50000200
        0x000016ca:    6211        .b      STR      r1,[r2,#0x20]
        0x000016cc:    4611        .F      MOV      r1,r2
        0x000016ce:    6a09        .j      LDR      r1,[r1,#0x20]
        0x000016d0:    2203        ."      MOVS     r2,#3
        0x000016d2:    0392        ..      LSLS     r2,r2,#14
        0x000016d4:    4391        .C      BICS     r1,r1,r2
        0x000016d6:    0b82        ..      LSRS     r2,r0,#14
        0x000016d8:    0392        ..      LSLS     r2,r2,#14
        0x000016da:    2303        .#      MOVS     r3,#3
        0x000016dc:    039b        ..      LSLS     r3,r3,#14
        0x000016de:    401a        .@      ANDS     r2,r2,r3
        0x000016e0:    4311        .C      ORRS     r1,r1,r2
        0x000016e2:    4a01        .J      LDR      r2,[pc,#4] ; [0x16e8] = 0x50000200
        0x000016e4:    6211        .b      STR      r1,[r2,#0x20]
        0x000016e6:    4770        pG      BX       lr
    $d
        0x000016e8:    50000200    ...P    DCD    1342177792
    $t
    i.EINT0_IRQHandler
    EINT0_IRQHandler
        0x000016ec:    b510        ..      PUSH     {r4,lr}
        0x000016ee:    2001        .       MOVS     r0,#1
        0x000016f0:    0380        ..      LSLS     r0,r0,#14
        0x000016f2:    4905        .I      LDR      r1,[pc,#20] ; [0x1708] = 0x50004040
        0x000016f4:    6208        .b      STR      r0,[r1,#0x20]
        0x000016f6:    4805        .H      LDR      r0,[pc,#20] ; [0x170c] = 0x20000804
        0x000016f8:    6800        .h      LDR      r0,[r0,#0]
        0x000016fa:    2800        .(      CMP      r0,#0
        0x000016fc:    d002        ..      BEQ      0x1704 ; EINT0_IRQHandler + 24
        0x000016fe:    4803        .H      LDR      r0,[pc,#12] ; [0x170c] = 0x20000804
        0x00001700:    6800        .h      LDR      r0,[r0,#0]
        0x00001702:    4780        .G      BLX      r0
        0x00001704:    bd10        ..      POP      {r4,pc}
    $d
        0x00001706:    0000        ..      DCW    0
        0x00001708:    50004040    @@.P    DCD    1342193728
        0x0000170c:    20000804    ...     DCD    536872964
    $t
    i.EINT1_IRQHandler
    EINT1_IRQHandler
        0x00001710:    b510        ..      PUSH     {r4,lr}
        0x00001712:    2001        .       MOVS     r0,#1
        0x00001714:    03c0        ..      LSLS     r0,r0,#15
        0x00001716:    4905        .I      LDR      r1,[pc,#20] ; [0x172c] = 0x50004040
        0x00001718:    6208        .b      STR      r0,[r1,#0x20]
        0x0000171a:    4805        .H      LDR      r0,[pc,#20] ; [0x1730] = 0x20000808
        0x0000171c:    6800        .h      LDR      r0,[r0,#0]
        0x0000171e:    2800        .(      CMP      r0,#0
        0x00001720:    d002        ..      BEQ      0x1728 ; EINT1_IRQHandler + 24
        0x00001722:    4803        .H      LDR      r0,[pc,#12] ; [0x1730] = 0x20000808
        0x00001724:    6800        .h      LDR      r0,[r0,#0]
        0x00001726:    4780        .G      BLX      r0
        0x00001728:    bd10        ..      POP      {r4,pc}
    $d
        0x0000172a:    0000        ..      DCW    0
        0x0000172c:    50004040    @@.P    DCD    1342193728
        0x00001730:    20000808    ...     DCD    536872968
    $t
    i.GPAB_IRQHandler
    GPAB_IRQHandler
        0x00001734:    b51c        ..      PUSH     {r2-r4,lr}
        0x00001736:    480e        .H      LDR      r0,[pc,#56] ; [0x1770] = 0x50004000
        0x00001738:    6a00        .j      LDR      r0,[r0,#0x20]
        0x0000173a:    9001        ..      STR      r0,[sp,#4]
        0x0000173c:    480c        .H      LDR      r0,[pc,#48] ; [0x1770] = 0x50004000
        0x0000173e:    3040        @0      ADDS     r0,r0,#0x40
        0x00001740:    6a00        .j      LDR      r0,[r0,#0x20]
        0x00001742:    9000        ..      STR      r0,[sp,#0]
        0x00001744:    2103        .!      MOVS     r1,#3
        0x00001746:    0389        ..      LSLS     r1,r1,#14
        0x00001748:    9800        ..      LDR      r0,[sp,#0]
        0x0000174a:    4388        .C      BICS     r0,r0,r1
        0x0000174c:    9000        ..      STR      r0,[sp,#0]
        0x0000174e:    4908        .I      LDR      r1,[pc,#32] ; [0x1770] = 0x50004000
        0x00001750:    9801        ..      LDR      r0,[sp,#4]
        0x00001752:    6208        .b      STR      r0,[r1,#0x20]
        0x00001754:    4906        .I      LDR      r1,[pc,#24] ; [0x1770] = 0x50004000
        0x00001756:    3140        @1      ADDS     r1,r1,#0x40
        0x00001758:    9800        ..      LDR      r0,[sp,#0]
        0x0000175a:    6208        .b      STR      r0,[r1,#0x20]
        0x0000175c:    4805        .H      LDR      r0,[pc,#20] ; [0x1774] = 0x200007fc
        0x0000175e:    6800        .h      LDR      r0,[r0,#0]
        0x00001760:    2800        .(      CMP      r0,#0
        0x00001762:    d004        ..      BEQ      0x176e ; GPAB_IRQHandler + 58
        0x00001764:    4a03        .J      LDR      r2,[pc,#12] ; [0x1774] = 0x200007fc
        0x00001766:    9900        ..      LDR      r1,[sp,#0]
        0x00001768:    9801        ..      LDR      r0,[sp,#4]
        0x0000176a:    6812        .h      LDR      r2,[r2,#0]
        0x0000176c:    4790        .G      BLX      r2
        0x0000176e:    bd1c        ..      POP      {r2-r4,pc}
    $d
        0x00001770:    50004000    .@.P    DCD    1342193664
        0x00001774:    200007fc    ...     DCD    536872956
    $t
    i.GPCDE_IRQHandler
    GPCDE_IRQHandler
        0x00001778:    b50e        ..      PUSH     {r1-r3,lr}
        0x0000177a:    4810        .H      LDR      r0,[pc,#64] ; [0x17bc] = 0x50004080
        0x0000177c:    6a00        .j      LDR      r0,[r0,#0x20]
        0x0000177e:    9002        ..      STR      r0,[sp,#8]
        0x00001780:    480e        .H      LDR      r0,[pc,#56] ; [0x17bc] = 0x50004080
        0x00001782:    3040        @0      ADDS     r0,r0,#0x40
        0x00001784:    6a00        .j      LDR      r0,[r0,#0x20]
        0x00001786:    9001        ..      STR      r0,[sp,#4]
        0x00001788:    480c        .H      LDR      r0,[pc,#48] ; [0x17bc] = 0x50004080
        0x0000178a:    3080        .0      ADDS     r0,r0,#0x80
        0x0000178c:    6a00        .j      LDR      r0,[r0,#0x20]
        0x0000178e:    9000        ..      STR      r0,[sp,#0]
        0x00001790:    490a        .I      LDR      r1,[pc,#40] ; [0x17bc] = 0x50004080
        0x00001792:    9802        ..      LDR      r0,[sp,#8]
        0x00001794:    6208        .b      STR      r0,[r1,#0x20]
        0x00001796:    4909        .I      LDR      r1,[pc,#36] ; [0x17bc] = 0x50004080
        0x00001798:    3140        @1      ADDS     r1,r1,#0x40
        0x0000179a:    9801        ..      LDR      r0,[sp,#4]
        0x0000179c:    6208        .b      STR      r0,[r1,#0x20]
        0x0000179e:    4907        .I      LDR      r1,[pc,#28] ; [0x17bc] = 0x50004080
        0x000017a0:    3180        .1      ADDS     r1,r1,#0x80
        0x000017a2:    9800        ..      LDR      r0,[sp,#0]
        0x000017a4:    6208        .b      STR      r0,[r1,#0x20]
        0x000017a6:    4806        .H      LDR      r0,[pc,#24] ; [0x17c0] = 0x20000800
        0x000017a8:    6800        .h      LDR      r0,[r0,#0]
        0x000017aa:    2800        .(      CMP      r0,#0
        0x000017ac:    d005        ..      BEQ      0x17ba ; GPCDE_IRQHandler + 66
        0x000017ae:    4b04        .K      LDR      r3,[pc,#16] ; [0x17c0] = 0x20000800
        0x000017b0:    9a00        ..      LDR      r2,[sp,#0]
        0x000017b2:    9901        ..      LDR      r1,[sp,#4]
        0x000017b4:    9802        ..      LDR      r0,[sp,#8]
        0x000017b6:    681b        .h      LDR      r3,[r3,#0]
        0x000017b8:    4798        .G      BLX      r3
        0x000017ba:    bd0e        ..      POP      {r1-r3,pc}
    $d
        0x000017bc:    50004080    .@.P    DCD    1342193792
        0x000017c0:    20000800    ...     DCD    536872960
    $t
    i.OpenKeyPad
    OpenKeyPad
        0x000017c4:    b510        ..      PUSH     {r4,lr}
        0x000017c6:    2400        .$      MOVS     r4,#0
        0x000017c8:    e006        ..      B        0x17d8 ; OpenKeyPad + 20
        0x000017ca:    2203        ."      MOVS     r2,#3
        0x000017cc:    4621        !F      MOV      r1,r4
        0x000017ce:    2000        .       MOVS     r0,#0
        0x000017d0:    f7fffafc    ....    BL       DrvGPIO_Open ; 0xdcc
        0x000017d4:    1c60        `.      ADDS     r0,r4,#1
        0x000017d6:    b2c4        ..      UXTB     r4,r0
        0x000017d8:    2c06        .,      CMP      r4,#6
        0x000017da:    dbf6        ..      BLT      0x17ca ; OpenKeyPad + 6
        0x000017dc:    bd10        ..      POP      {r4,pc}
        0x000017de:    0000        ..      MOVS     r0,r0
    i.PWRWU_IRQHandler
    PWRWU_IRQHandler
        0x000017e0:    b510        ..      PUSH     {r4,lr}
        0x000017e2:    4807        .H      LDR      r0,[pc,#28] ; [0x1800] = 0x50000200
        0x000017e4:    6800        .h      LDR      r0,[r0,#0]
        0x000017e6:    2140        @!      MOVS     r1,#0x40
        0x000017e8:    4388        .C      BICS     r0,r0,r1
        0x000017ea:    3040        @0      ADDS     r0,r0,#0x40
        0x000017ec:    4904        .I      LDR      r1,[pc,#16] ; [0x1800] = 0x50000200
        0x000017ee:    6008        .`      STR      r0,[r1,#0]
        0x000017f0:    4804        .H      LDR      r0,[pc,#16] ; [0x1804] = 0x20000810
        0x000017f2:    6800        .h      LDR      r0,[r0,#0]
        0x000017f4:    2800        .(      CMP      r0,#0
        0x000017f6:    d002        ..      BEQ      0x17fe ; PWRWU_IRQHandler + 30
        0x000017f8:    4802        .H      LDR      r0,[pc,#8] ; [0x1804] = 0x20000810
        0x000017fa:    6800        .h      LDR      r0,[r0,#0]
        0x000017fc:    4780        .G      BLX      r0
        0x000017fe:    bd10        ..      POP      {r4,pc}
    $d
        0x00001800:    50000200    ...P    DCD    1342177792
        0x00001804:    20000810    ...     DCD    536872976
    $t
    i.SPI0_IRQHandler
    SPI0_IRQHandler
        0x00001808:    b510        ..      PUSH     {r4,lr}
        0x0000180a:    4816        .H      LDR      r0,[pc,#88] ; [0x1864] = 0x40030000
        0x0000180c:    6800        .h      LDR      r0,[r0,#0]
        0x0000180e:    03c0        ..      LSLS     r0,r0,#15
        0x00001810:    0fc0        ..      LSRS     r0,r0,#31
        0x00001812:    2800        .(      CMP      r0,#0
        0x00001814:    d00f        ..      BEQ      0x1836 ; SPI0_IRQHandler + 46
        0x00001816:    4813        .H      LDR      r0,[pc,#76] ; [0x1864] = 0x40030000
        0x00001818:    6800        .h      LDR      r0,[r0,#0]
        0x0000181a:    2101        .!      MOVS     r1,#1
        0x0000181c:    0409        ..      LSLS     r1,r1,#16
        0x0000181e:    4388        .C      BICS     r0,r0,r1
        0x00001820:    1840        @.      ADDS     r0,r0,r1
        0x00001822:    4910        .I      LDR      r1,[pc,#64] ; [0x1864] = 0x40030000
        0x00001824:    6008        .`      STR      r0,[r1,#0]
        0x00001826:    4810        .H      LDR      r0,[pc,#64] ; [0x1868] = 0x20000c24
        0x00001828:    6840        @h      LDR      r0,[r0,#4]
        0x0000182a:    2800        .(      CMP      r0,#0
        0x0000182c:    d003        ..      BEQ      0x1836 ; SPI0_IRQHandler + 46
        0x0000182e:    4a0e        .J      LDR      r2,[pc,#56] ; [0x1868] = 0x20000c24
        0x00001830:    6890        .h      LDR      r0,[r2,#8]
        0x00001832:    6851        Qh      LDR      r1,[r2,#4]
        0x00001834:    4788        .G      BLX      r1
        0x00001836:    480b        .H      LDR      r0,[pc,#44] ; [0x1864] = 0x40030000
        0x00001838:    6bc0        .k      LDR      r0,[r0,#0x3c]
        0x0000183a:    0500        ..      LSLS     r0,r0,#20
        0x0000183c:    0fc0        ..      LSRS     r0,r0,#31
        0x0000183e:    2800        .(      CMP      r0,#0
        0x00001840:    d00f        ..      BEQ      0x1862 ; SPI0_IRQHandler + 90
        0x00001842:    4808        .H      LDR      r0,[pc,#32] ; [0x1864] = 0x40030000
        0x00001844:    6bc0        .k      LDR      r0,[r0,#0x3c]
        0x00001846:    2101        .!      MOVS     r1,#1
        0x00001848:    02c9        ..      LSLS     r1,r1,#11
        0x0000184a:    4388        .C      BICS     r0,r0,r1
        0x0000184c:    1840        @.      ADDS     r0,r0,r1
        0x0000184e:    4905        .I      LDR      r1,[pc,#20] ; [0x1864] = 0x40030000
        0x00001850:    63c8        .c      STR      r0,[r1,#0x3c]
        0x00001852:    4805        .H      LDR      r0,[pc,#20] ; [0x1868] = 0x20000c24
        0x00001854:    68c0        .h      LDR      r0,[r0,#0xc]
        0x00001856:    2800        .(      CMP      r0,#0
        0x00001858:    d003        ..      BEQ      0x1862 ; SPI0_IRQHandler + 90
        0x0000185a:    4a03        .J      LDR      r2,[pc,#12] ; [0x1868] = 0x20000c24
        0x0000185c:    6910        .i      LDR      r0,[r2,#0x10]
        0x0000185e:    68d1        .h      LDR      r1,[r2,#0xc]
        0x00001860:    4788        .G      BLX      r1
        0x00001862:    bd10        ..      POP      {r4,pc}
    $d
        0x00001864:    40030000    ...@    DCD    1073938432
        0x00001868:    20000c24    $..     DCD    536874020
    $t
    i.SPI1_IRQHandler
    SPI1_IRQHandler
        0x0000186c:    b510        ..      PUSH     {r4,lr}
        0x0000186e:    4816        .H      LDR      r0,[pc,#88] ; [0x18c8] = 0x40034000
        0x00001870:    6800        .h      LDR      r0,[r0,#0]
        0x00001872:    03c0        ..      LSLS     r0,r0,#15
        0x00001874:    0fc0        ..      LSRS     r0,r0,#31
        0x00001876:    2800        .(      CMP      r0,#0
        0x00001878:    d00f        ..      BEQ      0x189a ; SPI1_IRQHandler + 46
        0x0000187a:    4813        .H      LDR      r0,[pc,#76] ; [0x18c8] = 0x40034000
        0x0000187c:    6800        .h      LDR      r0,[r0,#0]
        0x0000187e:    2101        .!      MOVS     r1,#1
        0x00001880:    0409        ..      LSLS     r1,r1,#16
        0x00001882:    4388        .C      BICS     r0,r0,r1
        0x00001884:    1840        @.      ADDS     r0,r0,r1
        0x00001886:    4910        .I      LDR      r1,[pc,#64] ; [0x18c8] = 0x40034000
        0x00001888:    6008        .`      STR      r0,[r1,#0]
        0x0000188a:    4810        .H      LDR      r0,[pc,#64] ; [0x18cc] = 0x20000c24
        0x0000188c:    6980        .i      LDR      r0,[r0,#0x18]
        0x0000188e:    2800        .(      CMP      r0,#0
        0x00001890:    d003        ..      BEQ      0x189a ; SPI1_IRQHandler + 46
        0x00001892:    4a0e        .J      LDR      r2,[pc,#56] ; [0x18cc] = 0x20000c24
        0x00001894:    69d0        .i      LDR      r0,[r2,#0x1c]
        0x00001896:    6991        .i      LDR      r1,[r2,#0x18]
        0x00001898:    4788        .G      BLX      r1
        0x0000189a:    480b        .H      LDR      r0,[pc,#44] ; [0x18c8] = 0x40034000
        0x0000189c:    6bc0        .k      LDR      r0,[r0,#0x3c]
        0x0000189e:    0500        ..      LSLS     r0,r0,#20
        0x000018a0:    0fc0        ..      LSRS     r0,r0,#31
        0x000018a2:    2800        .(      CMP      r0,#0
        0x000018a4:    d00f        ..      BEQ      0x18c6 ; SPI1_IRQHandler + 90
        0x000018a6:    4808        .H      LDR      r0,[pc,#32] ; [0x18c8] = 0x40034000
        0x000018a8:    6bc0        .k      LDR      r0,[r0,#0x3c]
        0x000018aa:    2101        .!      MOVS     r1,#1
        0x000018ac:    02c9        ..      LSLS     r1,r1,#11
        0x000018ae:    4388        .C      BICS     r0,r0,r1
        0x000018b0:    1840        @.      ADDS     r0,r0,r1
        0x000018b2:    4905        .I      LDR      r1,[pc,#20] ; [0x18c8] = 0x40034000
        0x000018b4:    63c8        .c      STR      r0,[r1,#0x3c]
        0x000018b6:    4805        .H      LDR      r0,[pc,#20] ; [0x18cc] = 0x20000c24
        0x000018b8:    6a00        .j      LDR      r0,[r0,#0x20]
        0x000018ba:    2800        .(      CMP      r0,#0
        0x000018bc:    d003        ..      BEQ      0x18c6 ; SPI1_IRQHandler + 90
        0x000018be:    4a03        .J      LDR      r2,[pc,#12] ; [0x18cc] = 0x20000c24
        0x000018c0:    6a50        Pj      LDR      r0,[r2,#0x24]
        0x000018c2:    6a11        .j      LDR      r1,[r2,#0x20]
        0x000018c4:    4788        .G      BLX      r1
        0x000018c6:    bd10        ..      POP      {r4,pc}
    $d
        0x000018c8:    40034000    .@.@    DCD    1073954816
        0x000018cc:    20000c24    $..     DCD    536874020
    $t
    i.SPI2_IRQHandler
    SPI2_IRQHandler
        0x000018d0:    b510        ..      PUSH     {r4,lr}
        0x000018d2:    4816        .H      LDR      r0,[pc,#88] ; [0x192c] = 0x40130000
        0x000018d4:    6800        .h      LDR      r0,[r0,#0]
        0x000018d6:    03c0        ..      LSLS     r0,r0,#15
        0x000018d8:    0fc0        ..      LSRS     r0,r0,#31
        0x000018da:    2800        .(      CMP      r0,#0
        0x000018dc:    d00f        ..      BEQ      0x18fe ; SPI2_IRQHandler + 46
        0x000018de:    4813        .H      LDR      r0,[pc,#76] ; [0x192c] = 0x40130000
        0x000018e0:    6800        .h      LDR      r0,[r0,#0]
        0x000018e2:    2101        .!      MOVS     r1,#1
        0x000018e4:    0409        ..      LSLS     r1,r1,#16
        0x000018e6:    4388        .C      BICS     r0,r0,r1
        0x000018e8:    1840        @.      ADDS     r0,r0,r1
        0x000018ea:    4910        .I      LDR      r1,[pc,#64] ; [0x192c] = 0x40130000
        0x000018ec:    6008        .`      STR      r0,[r1,#0]
        0x000018ee:    4810        .H      LDR      r0,[pc,#64] ; [0x1930] = 0x20000c24
        0x000018f0:    6ac0        .j      LDR      r0,[r0,#0x2c]
        0x000018f2:    2800        .(      CMP      r0,#0
        0x000018f4:    d003        ..      BEQ      0x18fe ; SPI2_IRQHandler + 46
        0x000018f6:    4a0e        .J      LDR      r2,[pc,#56] ; [0x1930] = 0x20000c24
        0x000018f8:    6b10        .k      LDR      r0,[r2,#0x30]
        0x000018fa:    6ad1        .j      LDR      r1,[r2,#0x2c]
        0x000018fc:    4788        .G      BLX      r1
        0x000018fe:    480b        .H      LDR      r0,[pc,#44] ; [0x192c] = 0x40130000
        0x00001900:    6bc0        .k      LDR      r0,[r0,#0x3c]
        0x00001902:    0500        ..      LSLS     r0,r0,#20
        0x00001904:    0fc0        ..      LSRS     r0,r0,#31
        0x00001906:    2800        .(      CMP      r0,#0
        0x00001908:    d00f        ..      BEQ      0x192a ; SPI2_IRQHandler + 90
        0x0000190a:    4808        .H      LDR      r0,[pc,#32] ; [0x192c] = 0x40130000
        0x0000190c:    6bc0        .k      LDR      r0,[r0,#0x3c]
        0x0000190e:    2101        .!      MOVS     r1,#1
        0x00001910:    02c9        ..      LSLS     r1,r1,#11
        0x00001912:    4388        .C      BICS     r0,r0,r1
        0x00001914:    1840        @.      ADDS     r0,r0,r1
        0x00001916:    4905        .I      LDR      r1,[pc,#20] ; [0x192c] = 0x40130000
        0x00001918:    63c8        .c      STR      r0,[r1,#0x3c]
        0x0000191a:    4805        .H      LDR      r0,[pc,#20] ; [0x1930] = 0x20000c24
        0x0000191c:    6b40        @k      LDR      r0,[r0,#0x34]
        0x0000191e:    2800        .(      CMP      r0,#0
        0x00001920:    d003        ..      BEQ      0x192a ; SPI2_IRQHandler + 90
        0x00001922:    4a03        .J      LDR      r2,[pc,#12] ; [0x1930] = 0x20000c24
        0x00001924:    6b90        .k      LDR      r0,[r2,#0x38]
        0x00001926:    6b51        Qk      LDR      r1,[r2,#0x34]
        0x00001928:    4788        .G      BLX      r1
        0x0000192a:    bd10        ..      POP      {r4,pc}
    $d
        0x0000192c:    40130000    ...@    DCD    1074987008
        0x00001930:    20000c24    $..     DCD    536874020
    $t
    i.SPI3_IRQHandler
    SPI3_IRQHandler
        0x00001934:    b510        ..      PUSH     {r4,lr}
        0x00001936:    4816        .H      LDR      r0,[pc,#88] ; [0x1990] = 0x40134000
        0x00001938:    6800        .h      LDR      r0,[r0,#0]
        0x0000193a:    03c0        ..      LSLS     r0,r0,#15
        0x0000193c:    0fc0        ..      LSRS     r0,r0,#31
        0x0000193e:    2800        .(      CMP      r0,#0
        0x00001940:    d00f        ..      BEQ      0x1962 ; SPI3_IRQHandler + 46
        0x00001942:    4813        .H      LDR      r0,[pc,#76] ; [0x1990] = 0x40134000
        0x00001944:    6800        .h      LDR      r0,[r0,#0]
        0x00001946:    2101        .!      MOVS     r1,#1
        0x00001948:    0409        ..      LSLS     r1,r1,#16
        0x0000194a:    4388        .C      BICS     r0,r0,r1
        0x0000194c:    1840        @.      ADDS     r0,r0,r1
        0x0000194e:    4910        .I      LDR      r1,[pc,#64] ; [0x1990] = 0x40134000
        0x00001950:    6008        .`      STR      r0,[r1,#0]
        0x00001952:    4810        .H      LDR      r0,[pc,#64] ; [0x1994] = 0x20000c24
        0x00001954:    6c00        .l      LDR      r0,[r0,#0x40]
        0x00001956:    2800        .(      CMP      r0,#0
        0x00001958:    d003        ..      BEQ      0x1962 ; SPI3_IRQHandler + 46
        0x0000195a:    4a0e        .J      LDR      r2,[pc,#56] ; [0x1994] = 0x20000c24
        0x0000195c:    6c50        Pl      LDR      r0,[r2,#0x44]
        0x0000195e:    6c11        .l      LDR      r1,[r2,#0x40]
        0x00001960:    4788        .G      BLX      r1
        0x00001962:    480b        .H      LDR      r0,[pc,#44] ; [0x1990] = 0x40134000
        0x00001964:    6bc0        .k      LDR      r0,[r0,#0x3c]
        0x00001966:    0500        ..      LSLS     r0,r0,#20
        0x00001968:    0fc0        ..      LSRS     r0,r0,#31
        0x0000196a:    2800        .(      CMP      r0,#0
        0x0000196c:    d00f        ..      BEQ      0x198e ; SPI3_IRQHandler + 90
        0x0000196e:    4808        .H      LDR      r0,[pc,#32] ; [0x1990] = 0x40134000
        0x00001970:    6bc0        .k      LDR      r0,[r0,#0x3c]
        0x00001972:    2101        .!      MOVS     r1,#1
        0x00001974:    02c9        ..      LSLS     r1,r1,#11
        0x00001976:    4388        .C      BICS     r0,r0,r1
        0x00001978:    1840        @.      ADDS     r0,r0,r1
        0x0000197a:    4905        .I      LDR      r1,[pc,#20] ; [0x1990] = 0x40134000
        0x0000197c:    63c8        .c      STR      r0,[r1,#0x3c]
        0x0000197e:    4805        .H      LDR      r0,[pc,#20] ; [0x1994] = 0x20000c24
        0x00001980:    6c80        .l      LDR      r0,[r0,#0x48]
        0x00001982:    2800        .(      CMP      r0,#0
        0x00001984:    d003        ..      BEQ      0x198e ; SPI3_IRQHandler + 90
        0x00001986:    4a03        .J      LDR      r2,[pc,#12] ; [0x1994] = 0x20000c24
        0x00001988:    6cd0        .l      LDR      r0,[r2,#0x4c]
        0x0000198a:    6c91        .l      LDR      r1,[r2,#0x48]
        0x0000198c:    4788        .G      BLX      r1
        0x0000198e:    bd10        ..      POP      {r4,pc}
    $d
        0x00001990:    40134000    .@.@    DCD    1075003392
        0x00001994:    20000c24    $..     DCD    536874020
    $t
    i.ScanKey
    ScanKey
        0x00001998:    b5f8        ..      PUSH     {r3-r7,lr}
        0x0000199a:    481f        .H      LDR      r0,[pc,#124] ; [0x1a18] = 0x1ea4
        0x0000199c:    6800        .h      LDR      r0,[r0,#0]
        0x0000199e:    9000        ..      STR      r0,[sp,#0]
        0x000019a0:    2400        .$      MOVS     r4,#0
        0x000019a2:    e034        4.      B        0x1a0e ; ScanKey + 118
        0x000019a4:    4668        hF      MOV      r0,sp
        0x000019a6:    5d06        .]      LDRB     r6,[r0,r4]
        0x000019a8:    2500        .%      MOVS     r5,#0
        0x000019aa:    e00f        ..      B        0x19cc ; ScanKey + 52
        0x000019ac:    07f0        ..      LSLS     r0,r6,#31
        0x000019ae:    0fc0        ..      LSRS     r0,r0,#31
        0x000019b0:    2800        .(      CMP      r0,#0
        0x000019b2:    d004        ..      BEQ      0x19be ; ScanKey + 38
        0x000019b4:    4629        )F      MOV      r1,r5
        0x000019b6:    2000        .       MOVS     r0,#0
        0x000019b8:    f7fffa4c    ..L.    BL       DrvGPIO_SetBit ; 0xe54
        0x000019bc:    e003        ..      B        0x19c6 ; ScanKey + 46
        0x000019be:    4629        )F      MOV      r1,r5
        0x000019c0:    2000        .       MOVS     r0,#0
        0x000019c2:    f7fefe2b    ..+.    BL       DrvGPIO_ClrBit ; 0x61c
        0x000019c6:    1076        v.      ASRS     r6,r6,#1
        0x000019c8:    1c68        h.      ADDS     r0,r5,#1
        0x000019ca:    b2c5        ..      UXTB     r5,r0
        0x000019cc:    2d06        .-      CMP      r5,#6
        0x000019ce:    dbed        ..      BLT      0x19ac ; ScanKey + 20
        0x000019d0:    f000f8b0    ....    BL       delay ; 0x1b34
        0x000019d4:    2103        .!      MOVS     r1,#3
        0x000019d6:    2000        .       MOVS     r0,#0
        0x000019d8:    f7fefe36    ..6.    BL       DrvGPIO_GetBit ; 0x648
        0x000019dc:    2800        .(      CMP      r0,#0
        0x000019de:    d102        ..      BNE      0x19e6 ; ScanKey + 78
        0x000019e0:    1c60        `.      ADDS     r0,r4,#1
        0x000019e2:    b2c0        ..      UXTB     r0,r0
        0x000019e4:    bdf8        ..      POP      {r3-r7,pc}
        0x000019e6:    2104        .!      MOVS     r1,#4
        0x000019e8:    2000        .       MOVS     r0,#0
        0x000019ea:    f7fefe2d    ..-.    BL       DrvGPIO_GetBit ; 0x648
        0x000019ee:    2800        .(      CMP      r0,#0
        0x000019f0:    d102        ..      BNE      0x19f8 ; ScanKey + 96
        0x000019f2:    1d20         .      ADDS     r0,r4,#4
        0x000019f4:    b2c0        ..      UXTB     r0,r0
        0x000019f6:    e7f5        ..      B        0x19e4 ; ScanKey + 76
        0x000019f8:    2105        .!      MOVS     r1,#5
        0x000019fa:    2000        .       MOVS     r0,#0
        0x000019fc:    f7fefe24    ..$.    BL       DrvGPIO_GetBit ; 0x648
        0x00001a00:    2800        .(      CMP      r0,#0
        0x00001a02:    d102        ..      BNE      0x1a0a ; ScanKey + 114
        0x00001a04:    1de0        ..      ADDS     r0,r4,#7
        0x00001a06:    b2c0        ..      UXTB     r0,r0
        0x00001a08:    e7ec        ..      B        0x19e4 ; ScanKey + 76
        0x00001a0a:    1c60        `.      ADDS     r0,r4,#1
        0x00001a0c:    b2c4        ..      UXTB     r4,r0
        0x00001a0e:    2c03        .,      CMP      r4,#3
        0x00001a10:    dbc8        ..      BLT      0x19a4 ; ScanKey + 12
        0x00001a12:    2000        .       MOVS     r0,#0
        0x00001a14:    e7e6        ..      B        0x19e4 ; ScanKey + 76
    $d
        0x00001a16:    0000        ..      DCW    0
        0x00001a18:    00001ea4    ....    DCD    7844
    $t
    i.SystemCoreClockUpdate
    SystemCoreClockUpdate
        0x00001a1c:    b570        p.      PUSH     {r4-r6,lr}
        0x00001a1e:    4820         H      LDR      r0,[pc,#128] ; [0x1aa0] = 0x50000200
        0x00001a20:    6900        .i      LDR      r0,[r0,#0x10]
        0x00001a22:    0746        F.      LSLS     r6,r0,#29
        0x00001a24:    0f76        v.      LSRS     r6,r6,#29
        0x00001a26:    2e05        ..      CMP      r6,#5
        0x00001a28:    d900        ..      BLS      0x1a2c ; SystemCoreClockUpdate + 16
        0x00001a2a:    2604        .&      MOVS     r6,#4
        0x00001a2c:    2e02        ..      CMP      r6,#2
        0x00001a2e:    d003        ..      BEQ      0x1a38 ; SystemCoreClockUpdate + 28
        0x00001a30:    00b0        ..      LSLS     r0,r6,#2
        0x00001a32:    491c        .I      LDR      r1,[pc,#112] ; [0x1aa4] = 0x20000008
        0x00001a34:    580d        .X      LDR      r5,[r1,r0]
        0x00001a36:    e01f        ..      B        0x1a78 ; SystemCoreClockUpdate + 92
        0x00001a38:    4819        .H      LDR      r0,[pc,#100] ; [0x1aa0] = 0x50000200
        0x00001a3a:    6a00        .j      LDR      r0,[r0,#0x20]
        0x00001a3c:    0400        ..      LSLS     r0,r0,#16
        0x00001a3e:    0f84        ..      LSRS     r4,r0,#30
        0x00001a40:    2c01        .,      CMP      r4,#1
        0x00001a42:    d900        ..      BLS      0x1a46 ; SystemCoreClockUpdate + 42
        0x00001a44:    1e64        d.      SUBS     r4,r4,#1
        0x00001a46:    4a16        .J      LDR      r2,[pc,#88] ; [0x1aa0] = 0x50000200
        0x00001a48:    6a12        .j      LDR      r2,[r2,#0x20]
        0x00001a4a:    0312        ..      LSLS     r2,r2,#12
        0x00001a4c:    0fd2        ..      LSRS     r2,r2,#31
        0x00001a4e:    2a00        .*      CMP      r2,#0
        0x00001a50:    d001        ..      BEQ      0x1a56 ; SystemCoreClockUpdate + 58
        0x00001a52:    4a15        .J      LDR      r2,[pc,#84] ; [0x1aa8] = 0x1518000
        0x00001a54:    e000        ..      B        0x1a58 ; SystemCoreClockUpdate + 60
        0x00001a56:    4a15        .J      LDR      r2,[pc,#84] ; [0x1aac] = 0xb71b00
        0x00001a58:    4b11        .K      LDR      r3,[pc,#68] ; [0x1aa0] = 0x50000200
        0x00001a5a:    6a1b        .j      LDR      r3,[r3,#0x20]
        0x00001a5c:    05db        ..      LSLS     r3,r3,#23
        0x00001a5e:    0ddb        ..      LSRS     r3,r3,#23
        0x00001a60:    1c9b        ..      ADDS     r3,r3,#2
        0x00001a62:    4610        .F      MOV      r0,r2
        0x00001a64:    4358        XC      MULS     r0,r3,r0
        0x00001a66:    4a0e        .J      LDR      r2,[pc,#56] ; [0x1aa0] = 0x50000200
        0x00001a68:    6a12        .j      LDR      r2,[r2,#0x20]
        0x00001a6a:    0492        ..      LSLS     r2,r2,#18
        0x00001a6c:    0ed2        ..      LSRS     r2,r2,#27
        0x00001a6e:    1c91        ..      ADDS     r1,r2,#2
        0x00001a70:    f7fefc54    ..T.    BL       __aeabi_uidiv ; 0x31c
        0x00001a74:    40e0        .@      LSRS     r0,r0,r4
        0x00001a76:    4605        .F      MOV      r5,r0
        0x00001a78:    4809        .H      LDR      r0,[pc,#36] ; [0x1aa0] = 0x50000200
        0x00001a7a:    6980        .i      LDR      r0,[r0,#0x18]
        0x00001a7c:    0700        ..      LSLS     r0,r0,#28
        0x00001a7e:    0f00        ..      LSRS     r0,r0,#28
        0x00001a80:    1c41        A.      ADDS     r1,r0,#1
        0x00001a82:    4628        (F      MOV      r0,r5
        0x00001a84:    f7fefc4a    ..J.    BL       __aeabi_uidiv ; 0x31c
        0x00001a88:    4909        .I      LDR      r1,[pc,#36] ; [0x1ab0] = 0x20000000
        0x00001a8a:    6008        .`      STR      r0,[r1,#0]
        0x00001a8c:    4909        .I      LDR      r1,[pc,#36] ; [0x1ab4] = 0xf4240
        0x00001a8e:    4808        .H      LDR      r0,[pc,#32] ; [0x1ab0] = 0x20000000
        0x00001a90:    6800        .h      LDR      r0,[r0,#0]
        0x00001a92:    104a        J.      ASRS     r2,r1,#1
        0x00001a94:    1880        ..      ADDS     r0,r0,r2
        0x00001a96:    f7fefc41    ..A.    BL       __aeabi_uidiv ; 0x31c
        0x00001a9a:    4907        .I      LDR      r1,[pc,#28] ; [0x1ab8] = 0x20000004
        0x00001a9c:    6008        .`      STR      r0,[r1,#0]
        0x00001a9e:    bd70        p.      POP      {r4-r6,pc}
    $d
        0x00001aa0:    50000200    ...P    DCD    1342177792
        0x00001aa4:    20000008    ...     DCD    536870920
        0x00001aa8:    01518000    ..Q.    DCD    22118400
        0x00001aac:    00b71b00    ....    DCD    12000000
        0x00001ab0:    20000000    ...     DCD    536870912
        0x00001ab4:    000f4240    @B..    DCD    1000000
        0x00001ab8:    20000004    ...     DCD    536870916
    $t
    i.SystemInit
    SystemInit
        0x00001abc:    4770        pG      BX       lr
    i.__ARM_common_switch8
    __ARM_common_switch8
        0x00001abe:    b430        0.      PUSH     {r4,r5}
        0x00001ac0:    4674        tF      MOV      r4,lr
        0x00001ac2:    1e64        d.      SUBS     r4,r4,#1
        0x00001ac4:    7825        %x      LDRB     r5,[r4,#0]
        0x00001ac6:    1c64        d.      ADDS     r4,r4,#1
        0x00001ac8:    42ab        .B      CMP      r3,r5
        0x00001aca:    d304        ..      BCC      0x1ad6 ; __ARM_common_switch8 + 24
        0x00001acc:    5d63        c]      LDRB     r3,[r4,r5]
        0x00001ace:    005b        [.      LSLS     r3,r3,#1
        0x00001ad0:    18e3        ..      ADDS     r3,r4,r3
        0x00001ad2:    bc30        0.      POP      {r4,r5}
        0x00001ad4:    4718        .G      BX       r3
        0x00001ad6:    461d        .F      MOV      r5,r3
        0x00001ad8:    e7f8        ..      B        0x1acc ; __ARM_common_switch8 + 14
        0x00001ada:    0000        ..      MOVS     r0,r0
    i.clear_LCD
    clear_LCD
        0x00001adc:    b530        0.      PUSH     {r4,r5,lr}
        0x00001ade:    2500        .%      MOVS     r5,#0
        0x00001ae0:    e011        ..      B        0x1b06 ; clear_LCD + 42
        0x00001ae2:    2400        .$      MOVS     r4,#0
        0x00001ae4:    e00b        ..      B        0x1afe ; clear_LCD + 34
        0x00001ae6:    2100        .!      MOVS     r1,#0
        0x00001ae8:    4628        (F      MOV      r0,r5
        0x00001aea:    17ea        ..      ASRS     r2,r5,#31
        0x00001aec:    0f52        R.      LSRS     r2,r2,#29
        0x00001aee:    1812        ..      ADDS     r2,r2,r0
        0x00001af0:    10d2        ..      ASRS     r2,r2,#3
        0x00001af2:    01d2        ..      LSLS     r2,r2,#7
        0x00001af4:    1912        ..      ADDS     r2,r2,r4
        0x00001af6:    4b0e        .K      LDR      r3,[pc,#56] ; [0x1b30] = 0x20000824
        0x00001af8:    5499        .T      STRB     r1,[r3,r2]
        0x00001afa:    1c60        `.      ADDS     r0,r4,#1
        0x00001afc:    b204        ..      SXTH     r4,r0
        0x00001afe:    2c80        .,      CMP      r4,#0x80
        0x00001b00:    dbf1        ..      BLT      0x1ae6 ; clear_LCD + 10
        0x00001b02:    1c68        h.      ADDS     r0,r5,#1
        0x00001b04:    b205        ..      SXTH     r5,r0
        0x00001b06:    2d40        @-      CMP      r5,#0x40
        0x00001b08:    dbeb        ..      BLT      0x1ae2 ; clear_LCD + 6
        0x00001b0a:    2100        .!      MOVS     r1,#0
        0x00001b0c:    4608        .F      MOV      r0,r1
        0x00001b0e:    f000f84b    ..K.    BL       lcdSetAddr ; 0x1ba8
        0x00001b12:    2400        .$      MOVS     r4,#0
        0x00001b14:    e004        ..      B        0x1b20 ; clear_LCD + 68
        0x00001b16:    2000        .       MOVS     r0,#0
        0x00001b18:    f000f8f0    ....    BL       lcdWriteData ; 0x1cfc
        0x00001b1c:    1c60        `.      ADDS     r0,r4,#1
        0x00001b1e:    b204        ..      SXTH     r4,r0
        0x00001b20:    2021        !       MOVS     r0,#0x21
        0x00001b22:    0140        @.      LSLS     r0,r0,#5
        0x00001b24:    4284        .B      CMP      r4,r0
        0x00001b26:    dbf6        ..      BLT      0x1b16 ; clear_LCD + 58
        0x00001b28:    200f        .       MOVS     r0,#0xf
        0x00001b2a:    f000f8e7    ....    BL       lcdWriteData ; 0x1cfc
        0x00001b2e:    bd30        0.      POP      {r4,r5,pc}
    $d
        0x00001b30:    20000824    $..     DCD    536872996
    $t
    i.delay
    delay
        0x00001b34:    2000        .       MOVS     r0,#0
        0x00001b36:    e000        ..      B        0x1b3a ; delay + 6
        0x00001b38:    1c40        @.      ADDS     r0,r0,#1
        0x00001b3a:    217d        }!      MOVS     r1,#0x7d
        0x00001b3c:    00c9        ..      LSLS     r1,r1,#3
        0x00001b3e:    4288        .B      CMP      r0,r1
        0x00001b40:    dbfa        ..      BLT      0x1b38 ; delay + 4
        0x00001b42:    4770        pG      BX       lr
    i.init_LCD
    init_LCD
        0x00001b44:    b510        ..      PUSH     {r4,lr}
        0x00001b46:    f000f811    ....    BL       init_SPI3 ; 0x1b6c
        0x00001b4a:    20eb        .       MOVS     r0,#0xeb
        0x00001b4c:    f000f8a6    ....    BL       lcdWriteCommand ; 0x1c9c
        0x00001b50:    2081        .       MOVS     r0,#0x81
        0x00001b52:    f000f8a3    ....    BL       lcdWriteCommand ; 0x1c9c
        0x00001b56:    20a0        .       MOVS     r0,#0xa0
        0x00001b58:    f000f8a0    ....    BL       lcdWriteCommand ; 0x1c9c
        0x00001b5c:    20c0        .       MOVS     r0,#0xc0
        0x00001b5e:    f000f89d    ....    BL       lcdWriteCommand ; 0x1c9c
        0x00001b62:    20af        .       MOVS     r0,#0xaf
        0x00001b64:    f000f89a    ....    BL       lcdWriteCommand ; 0x1c9c
        0x00001b68:    bd10        ..      POP      {r4,pc}
        0x00001b6a:    0000        ..      MOVS     r0,r0
    i.init_SPI3
    init_SPI3
        0x00001b6c:    b510        ..      PUSH     {r4,lr}
        0x00001b6e:    2011        .       MOVS     r0,#0x11
        0x00001b70:    f7fefd80    ....    BL       DrvGPIO_InitFunction ; 0x674
        0x00001b74:    2309        .#      MOVS     r3,#9
        0x00001b76:    2201        ."      MOVS     r2,#1
        0x00001b78:    2100        .!      MOVS     r1,#0
        0x00001b7a:    2003        .       MOVS     r0,#3
        0x00001b7c:    f7fff9a0    ....    BL       DrvSPI_Open ; 0xec0
        0x00001b80:    2101        .!      MOVS     r1,#1
        0x00001b82:    2003        .       MOVS     r0,#3
        0x00001b84:    f7fffbec    ....    BL       DrvSPI_SetEndian ; 0x1360
        0x00001b88:    2003        .       MOVS     r0,#3
        0x00001b8a:    f7fff979    ..y.    BL       DrvSPI_DisableAutoSS ; 0xe80
        0x00001b8e:    2100        .!      MOVS     r1,#0
        0x00001b90:    2003        .       MOVS     r0,#3
        0x00001b92:    f7fffc03    ....    BL       DrvSPI_SetSlaveSelectActiveLevel ; 0x139c
        0x00001b96:    2200        ."      MOVS     r2,#0
        0x00001b98:    4902        .I      LDR      r1,[pc,#8] ; [0x1ba4] = 0x17d7840
        0x00001b9a:    2003        .       MOVS     r0,#3
        0x00001b9c:    f7fffb76    ..v.    BL       DrvSPI_SetClockFreq ; 0x128c
        0x00001ba0:    bd10        ..      POP      {r4,pc}
    $d
        0x00001ba2:    0000        ..      DCW    0
        0x00001ba4:    017d7840    @x}.    DCD    25000000
    $t
    i.lcdSetAddr
    lcdSetAddr
        0x00001ba8:    4a3b        ;J      LDR      r2,[pc,#236] ; [0x1c98] = 0x200007ec
        0x00001baa:    68d2        .h      LDR      r2,[r2,#0xc]
        0x00001bac:    6892        .h      LDR      r2,[r2,#8]
        0x00001bae:    0892        ..      LSRS     r2,r2,#2
        0x00001bb0:    0092        ..      LSLS     r2,r2,#2
        0x00001bb2:    1c52        R.      ADDS     r2,r2,#1
        0x00001bb4:    4b38        8K      LDR      r3,[pc,#224] ; [0x1c98] = 0x200007ec
        0x00001bb6:    68db        .h      LDR      r3,[r3,#0xc]
        0x00001bb8:    609a        .`      STR      r2,[r3,#8]
        0x00001bba:    22b0        ."      MOVS     r2,#0xb0
        0x00001bbc:    4302        .C      ORRS     r2,r2,r0
        0x00001bbe:    4b36        6K      LDR      r3,[pc,#216] ; [0x1c98] = 0x200007ec
        0x00001bc0:    68db        .h      LDR      r3,[r3,#0xc]
        0x00001bc2:    621a        .b      STR      r2,[r3,#0x20]
        0x00001bc4:    4a34        4J      LDR      r2,[pc,#208] ; [0x1c98] = 0x200007ec
        0x00001bc6:    68d2        .h      LDR      r2,[r2,#0xc]
        0x00001bc8:    6812        .h      LDR      r2,[r2,#0]
        0x00001bca:    0852        R.      LSRS     r2,r2,#1
        0x00001bcc:    0052        R.      LSLS     r2,r2,#1
        0x00001bce:    1c52        R.      ADDS     r2,r2,#1
        0x00001bd0:    4b31        1K      LDR      r3,[pc,#196] ; [0x1c98] = 0x200007ec
        0x00001bd2:    68db        .h      LDR      r3,[r3,#0xc]
        0x00001bd4:    601a        .`      STR      r2,[r3,#0]
        0x00001bd6:    bf00        ..      NOP      
        0x00001bd8:    4a2f        /J      LDR      r2,[pc,#188] ; [0x1c98] = 0x200007ec
        0x00001bda:    68d2        .h      LDR      r2,[r2,#0xc]
        0x00001bdc:    6812        .h      LDR      r2,[r2,#0]
        0x00001bde:    07d2        ..      LSLS     r2,r2,#31
        0x00001be0:    0fd2        ..      LSRS     r2,r2,#31
        0x00001be2:    2a00        .*      CMP      r2,#0
        0x00001be4:    d1f8        ..      BNE      0x1bd8 ; lcdSetAddr + 48
        0x00001be6:    4a2c        ,J      LDR      r2,[pc,#176] ; [0x1c98] = 0x200007ec
        0x00001be8:    68d2        .h      LDR      r2,[r2,#0xc]
        0x00001bea:    6892        .h      LDR      r2,[r2,#8]
        0x00001bec:    0892        ..      LSRS     r2,r2,#2
        0x00001bee:    0092        ..      LSLS     r2,r2,#2
        0x00001bf0:    4b29        )K      LDR      r3,[pc,#164] ; [0x1c98] = 0x200007ec
        0x00001bf2:    68db        .h      LDR      r3,[r3,#0xc]
        0x00001bf4:    609a        .`      STR      r2,[r3,#8]
        0x00001bf6:    4a28        (J      LDR      r2,[pc,#160] ; [0x1c98] = 0x200007ec
        0x00001bf8:    68d2        .h      LDR      r2,[r2,#0xc]
        0x00001bfa:    6892        .h      LDR      r2,[r2,#8]
        0x00001bfc:    0892        ..      LSRS     r2,r2,#2
        0x00001bfe:    0092        ..      LSLS     r2,r2,#2
        0x00001c00:    1c52        R.      ADDS     r2,r2,#1
        0x00001c02:    4b25        %K      LDR      r3,[pc,#148] ; [0x1c98] = 0x200007ec
        0x00001c04:    68db        .h      LDR      r3,[r3,#0xc]
        0x00001c06:    609a        .`      STR      r2,[r3,#8]
        0x00001c08:    060a        ..      LSLS     r2,r1,#24
        0x00001c0a:    0f12        ..      LSRS     r2,r2,#28
        0x00001c0c:    2310        .#      MOVS     r3,#0x10
        0x00001c0e:    431a        .C      ORRS     r2,r2,r3
        0x00001c10:    4b21        !K      LDR      r3,[pc,#132] ; [0x1c98] = 0x200007ec
        0x00001c12:    68db        .h      LDR      r3,[r3,#0xc]
        0x00001c14:    621a        .b      STR      r2,[r3,#0x20]
        0x00001c16:    4a20         J      LDR      r2,[pc,#128] ; [0x1c98] = 0x200007ec
        0x00001c18:    68d2        .h      LDR      r2,[r2,#0xc]
        0x00001c1a:    6812        .h      LDR      r2,[r2,#0]
        0x00001c1c:    0852        R.      LSRS     r2,r2,#1
        0x00001c1e:    0052        R.      LSLS     r2,r2,#1
        0x00001c20:    1c52        R.      ADDS     r2,r2,#1
        0x00001c22:    4b1d        .K      LDR      r3,[pc,#116] ; [0x1c98] = 0x200007ec
        0x00001c24:    68db        .h      LDR      r3,[r3,#0xc]
        0x00001c26:    601a        .`      STR      r2,[r3,#0]
        0x00001c28:    bf00        ..      NOP      
        0x00001c2a:    4a1b        .J      LDR      r2,[pc,#108] ; [0x1c98] = 0x200007ec
        0x00001c2c:    68d2        .h      LDR      r2,[r2,#0xc]
        0x00001c2e:    6812        .h      LDR      r2,[r2,#0]
        0x00001c30:    07d2        ..      LSLS     r2,r2,#31
        0x00001c32:    0fd2        ..      LSRS     r2,r2,#31
        0x00001c34:    2a00        .*      CMP      r2,#0
        0x00001c36:    d1f8        ..      BNE      0x1c2a ; lcdSetAddr + 130
        0x00001c38:    4a17        .J      LDR      r2,[pc,#92] ; [0x1c98] = 0x200007ec
        0x00001c3a:    68d2        .h      LDR      r2,[r2,#0xc]
        0x00001c3c:    6892        .h      LDR      r2,[r2,#8]
        0x00001c3e:    0892        ..      LSRS     r2,r2,#2
        0x00001c40:    0092        ..      LSLS     r2,r2,#2
        0x00001c42:    4b15        .K      LDR      r3,[pc,#84] ; [0x1c98] = 0x200007ec
        0x00001c44:    68db        .h      LDR      r3,[r3,#0xc]
        0x00001c46:    609a        .`      STR      r2,[r3,#8]
        0x00001c48:    4a13        .J      LDR      r2,[pc,#76] ; [0x1c98] = 0x200007ec
        0x00001c4a:    68d2        .h      LDR      r2,[r2,#0xc]
        0x00001c4c:    6892        .h      LDR      r2,[r2,#8]
        0x00001c4e:    0892        ..      LSRS     r2,r2,#2
        0x00001c50:    0092        ..      LSLS     r2,r2,#2
        0x00001c52:    1c52        R.      ADDS     r2,r2,#1
        0x00001c54:    4b10        .K      LDR      r3,[pc,#64] ; [0x1c98] = 0x200007ec
        0x00001c56:    68db        .h      LDR      r3,[r3,#0xc]
        0x00001c58:    609a        .`      STR      r2,[r3,#8]
        0x00001c5a:    070a        ..      LSLS     r2,r1,#28
        0x00001c5c:    0f12        ..      LSRS     r2,r2,#28
        0x00001c5e:    4b0e        .K      LDR      r3,[pc,#56] ; [0x1c98] = 0x200007ec
        0x00001c60:    68db        .h      LDR      r3,[r3,#0xc]
        0x00001c62:    621a        .b      STR      r2,[r3,#0x20]
        0x00001c64:    4a0c        .J      LDR      r2,[pc,#48] ; [0x1c98] = 0x200007ec
        0x00001c66:    68d2        .h      LDR      r2,[r2,#0xc]
        0x00001c68:    6812        .h      LDR      r2,[r2,#0]
        0x00001c6a:    0852        R.      LSRS     r2,r2,#1
        0x00001c6c:    0052        R.      LSLS     r2,r2,#1
        0x00001c6e:    1c52        R.      ADDS     r2,r2,#1
        0x00001c70:    4b09        .K      LDR      r3,[pc,#36] ; [0x1c98] = 0x200007ec
        0x00001c72:    68db        .h      LDR      r3,[r3,#0xc]
        0x00001c74:    601a        .`      STR      r2,[r3,#0]
        0x00001c76:    bf00        ..      NOP      
        0x00001c78:    4a07        .J      LDR      r2,[pc,#28] ; [0x1c98] = 0x200007ec
        0x00001c7a:    68d2        .h      LDR      r2,[r2,#0xc]
        0x00001c7c:    6812        .h      LDR      r2,[r2,#0]
        0x00001c7e:    07d2        ..      LSLS     r2,r2,#31
        0x00001c80:    0fd2        ..      LSRS     r2,r2,#31
        0x00001c82:    2a00        .*      CMP      r2,#0
        0x00001c84:    d1f8        ..      BNE      0x1c78 ; lcdSetAddr + 208
        0x00001c86:    4a04        .J      LDR      r2,[pc,#16] ; [0x1c98] = 0x200007ec
        0x00001c88:    68d2        .h      LDR      r2,[r2,#0xc]
        0x00001c8a:    6892        .h      LDR      r2,[r2,#8]
        0x00001c8c:    0892        ..      LSRS     r2,r2,#2
        0x00001c8e:    0092        ..      LSLS     r2,r2,#2
        0x00001c90:    4b01        .K      LDR      r3,[pc,#4] ; [0x1c98] = 0x200007ec
        0x00001c92:    68db        .h      LDR      r3,[r3,#0xc]
        0x00001c94:    609a        .`      STR      r2,[r3,#8]
        0x00001c96:    4770        pG      BX       lr
    $d
        0x00001c98:    200007ec    ...     DCD    536872940
    $t
    i.lcdWriteCommand
    lcdWriteCommand
        0x00001c9c:    b510        ..      PUSH     {r4,lr}
        0x00001c9e:    4604        .F      MOV      r4,r0
        0x00001ca0:    4815        .H      LDR      r0,[pc,#84] ; [0x1cf8] = 0x200007ec
        0x00001ca2:    68c0        .h      LDR      r0,[r0,#0xc]
        0x00001ca4:    6880        .h      LDR      r0,[r0,#8]
        0x00001ca6:    0880        ..      LSRS     r0,r0,#2
        0x00001ca8:    0080        ..      LSLS     r0,r0,#2
        0x00001caa:    1c40        @.      ADDS     r0,r0,#1
        0x00001cac:    4912        .I      LDR      r1,[pc,#72] ; [0x1cf8] = 0x200007ec
        0x00001cae:    68c9        .h      LDR      r1,[r1,#0xc]
        0x00001cb0:    6088        .`      STR      r0,[r1,#8]
        0x00001cb2:    4811        .H      LDR      r0,[pc,#68] ; [0x1cf8] = 0x200007ec
        0x00001cb4:    68c0        .h      LDR      r0,[r0,#0xc]
        0x00001cb6:    6204        .b      STR      r4,[r0,#0x20]
        0x00001cb8:    480f        .H      LDR      r0,[pc,#60] ; [0x1cf8] = 0x200007ec
        0x00001cba:    68c0        .h      LDR      r0,[r0,#0xc]
        0x00001cbc:    6800        .h      LDR      r0,[r0,#0]
        0x00001cbe:    0840        @.      LSRS     r0,r0,#1
        0x00001cc0:    0040        @.      LSLS     r0,r0,#1
        0x00001cc2:    1c40        @.      ADDS     r0,r0,#1
        0x00001cc4:    490c        .I      LDR      r1,[pc,#48] ; [0x1cf8] = 0x200007ec
        0x00001cc6:    68c9        .h      LDR      r1,[r1,#0xc]
        0x00001cc8:    6008        .`      STR      r0,[r1,#0]
        0x00001cca:    bf00        ..      NOP      
        0x00001ccc:    480a        .H      LDR      r0,[pc,#40] ; [0x1cf8] = 0x200007ec
        0x00001cce:    68c0        .h      LDR      r0,[r0,#0xc]
        0x00001cd0:    6800        .h      LDR      r0,[r0,#0]
        0x00001cd2:    07c0        ..      LSLS     r0,r0,#31
        0x00001cd4:    0fc0        ..      LSRS     r0,r0,#31
        0x00001cd6:    2800        .(      CMP      r0,#0
        0x00001cd8:    d1f8        ..      BNE      0x1ccc ; lcdWriteCommand + 48
        0x00001cda:    4807        .H      LDR      r0,[pc,#28] ; [0x1cf8] = 0x200007ec
        0x00001cdc:    68c0        .h      LDR      r0,[r0,#0xc]
        0x00001cde:    6880        .h      LDR      r0,[r0,#8]
        0x00001ce0:    0880        ..      LSRS     r0,r0,#2
        0x00001ce2:    0080        ..      LSLS     r0,r0,#2
        0x00001ce4:    4904        .I      LDR      r1,[pc,#16] ; [0x1cf8] = 0x200007ec
        0x00001ce6:    68c9        .h      LDR      r1,[r1,#0xc]
        0x00001ce8:    6088        .`      STR      r0,[r1,#8]
        0x00001cea:    bf00        ..      NOP      
        0x00001cec:    2003        .       MOVS     r0,#3
        0x00001cee:    f7fff8dd    ....    BL       DrvSPI_IsBusy ; 0xeac
        0x00001cf2:    2800        .(      CMP      r0,#0
        0x00001cf4:    d1fa        ..      BNE      0x1cec ; lcdWriteCommand + 80
        0x00001cf6:    bd10        ..      POP      {r4,pc}
    $d
        0x00001cf8:    200007ec    ...     DCD    536872940
    $t
    i.lcdWriteData
    lcdWriteData
        0x00001cfc:    4914        .I      LDR      r1,[pc,#80] ; [0x1d50] = 0x200007ec
        0x00001cfe:    68c9        .h      LDR      r1,[r1,#0xc]
        0x00001d00:    6889        .h      LDR      r1,[r1,#8]
        0x00001d02:    0889        ..      LSRS     r1,r1,#2
        0x00001d04:    0089        ..      LSLS     r1,r1,#2
        0x00001d06:    1c49        I.      ADDS     r1,r1,#1
        0x00001d08:    4a11        .J      LDR      r2,[pc,#68] ; [0x1d50] = 0x200007ec
        0x00001d0a:    68d2        .h      LDR      r2,[r2,#0xc]
        0x00001d0c:    6091        .`      STR      r1,[r2,#8]
        0x00001d0e:    21ff        .!      MOVS     r1,#0xff
        0x00001d10:    3101        .1      ADDS     r1,#1
        0x00001d12:    4301        .C      ORRS     r1,r1,r0
        0x00001d14:    4a0e        .J      LDR      r2,[pc,#56] ; [0x1d50] = 0x200007ec
        0x00001d16:    68d2        .h      LDR      r2,[r2,#0xc]
        0x00001d18:    6211        .b      STR      r1,[r2,#0x20]
        0x00001d1a:    490d        .I      LDR      r1,[pc,#52] ; [0x1d50] = 0x200007ec
        0x00001d1c:    68c9        .h      LDR      r1,[r1,#0xc]
        0x00001d1e:    6809        .h      LDR      r1,[r1,#0]
        0x00001d20:    0849        I.      LSRS     r1,r1,#1
        0x00001d22:    0049        I.      LSLS     r1,r1,#1
        0x00001d24:    1c49        I.      ADDS     r1,r1,#1
        0x00001d26:    4a0a        .J      LDR      r2,[pc,#40] ; [0x1d50] = 0x200007ec
        0x00001d28:    68d2        .h      LDR      r2,[r2,#0xc]
        0x00001d2a:    6011        .`      STR      r1,[r2,#0]
        0x00001d2c:    bf00        ..      NOP      
        0x00001d2e:    4908        .I      LDR      r1,[pc,#32] ; [0x1d50] = 0x200007ec
        0x00001d30:    68c9        .h      LDR      r1,[r1,#0xc]
        0x00001d32:    6809        .h      LDR      r1,[r1,#0]
        0x00001d34:    07c9        ..      LSLS     r1,r1,#31
        0x00001d36:    0fc9        ..      LSRS     r1,r1,#31
        0x00001d38:    2900        .)      CMP      r1,#0
        0x00001d3a:    d1f8        ..      BNE      0x1d2e ; lcdWriteData + 50
        0x00001d3c:    4904        .I      LDR      r1,[pc,#16] ; [0x1d50] = 0x200007ec
        0x00001d3e:    68c9        .h      LDR      r1,[r1,#0xc]
        0x00001d40:    6889        .h      LDR      r1,[r1,#8]
        0x00001d42:    0889        ..      LSRS     r1,r1,#2
        0x00001d44:    0089        ..      LSLS     r1,r1,#2
        0x00001d46:    4a02        .J      LDR      r2,[pc,#8] ; [0x1d50] = 0x200007ec
        0x00001d48:    68d2        .h      LDR      r2,[r2,#0xc]
        0x00001d4a:    6091        .`      STR      r1,[r2,#8]
        0x00001d4c:    4770        pG      BX       lr
    $d
        0x00001d4e:    0000        ..      DCW    0
        0x00001d50:    200007ec    ...     DCD    536872940
    $t
    i.main
    main
        0x00001d54:    b088        ..      SUB      sp,sp,#0x20
        0x00001d56:    a11d        ..      ADR      r1,{pc}+0x76 ; 0x1dcc
        0x00001d58:    684b        Kh      LDR      r3,[r1,#4]
        0x00001d5a:    680a        .h      LDR      r2,[r1,#0]
        0x00001d5c:    6888        .h      LDR      r0,[r1,#8]
        0x00001d5e:    68c9        .h      LDR      r1,[r1,#0xc]
        0x00001d60:    9305        ..      STR      r3,[sp,#0x14]
        0x00001d62:    9204        ..      STR      r2,[sp,#0x10]
        0x00001d64:    9107        ..      STR      r1,[sp,#0x1c]
        0x00001d66:    9006        ..      STR      r0,[sp,#0x18]
        0x00001d68:    a31c        ..      ADR      r3,{pc}+0x74 ; 0x1ddc
        0x00001d6a:    681a        .h      LDR      r2,[r3,#0]
        0x00001d6c:    6859        Yh      LDR      r1,[r3,#4]
        0x00001d6e:    6898        .h      LDR      r0,[r3,#8]
        0x00001d70:    68db        .h      LDR      r3,[r3,#0xc]
        0x00001d72:    9303        ..      STR      r3,[sp,#0xc]
        0x00001d74:    9200        ..      STR      r2,[sp,#0]
        0x00001d76:    9101        ..      STR      r1,[sp,#4]
        0x00001d78:    9002        ..      STR      r0,[sp,#8]
        0x00001d7a:    2059        Y       MOVS     r0,#0x59
        0x00001d7c:    491b        .I      LDR      r1,[pc,#108] ; [0x1dec] = 0x50000100
        0x00001d7e:    6008        .`      STR      r0,[r1,#0]
        0x00001d80:    2016        .       MOVS     r0,#0x16
        0x00001d82:    6008        .`      STR      r0,[r1,#0]
        0x00001d84:    2088        .       MOVS     r0,#0x88
        0x00001d86:    6008        .`      STR      r0,[r1,#0]
        0x00001d88:    4819        .H      LDR      r0,[pc,#100] ; [0x1df0] = 0x2dc6c00
        0x00001d8a:    f7fffc0d    ....    BL       DrvSYS_Open ; 0x15a8
        0x00001d8e:    2000        .       MOVS     r0,#0
        0x00001d90:    4916        .I      LDR      r1,[pc,#88] ; [0x1dec] = 0x50000100
        0x00001d92:    6008        .`      STR      r0,[r1,#0]
        0x00001d94:    f7fffed6    ....    BL       init_LCD ; 0x1b44
        0x00001d98:    f7fffea0    ....    BL       clear_LCD ; 0x1adc
        0x00001d9c:    f7fffd12    ....    BL       OpenKeyPad ; 0x17c4
        0x00001da0:    a904        ..      ADD      r1,sp,#0x10
        0x00001da2:    2000        .       MOVS     r0,#0
        0x00001da4:    f000f86c    ..l.    BL       print_Line ; 0x1e80
        0x00001da8:    e00e        ..      B        0x1dc8 ; main + 116
        0x00001daa:    f7fffdf5    ....    BL       ScanKey ; 0x1998
        0x00001dae:    b244        D.      SXTB     r4,r0
        0x00001db0:    4622        "F      MOV      r2,r4
        0x00001db2:    a110        ..      ADR      r1,{pc}+0x42 ; 0x1df4
        0x00001db4:    a802        ..      ADD      r0,sp,#8
        0x00001db6:    f7fefa0f    ....    BL       __2sprintf ; 0x1d8
        0x00001dba:    4669        iF      MOV      r1,sp
        0x00001dbc:    2001        .       MOVS     r0,#1
        0x00001dbe:    f000f85f    .._.    BL       print_Line ; 0x1e80
        0x00001dc2:    480d        .H      LDR      r0,[pc,#52] ; [0x1df8] = 0x1388
        0x00001dc4:    f7fffafc    ....    BL       DrvSYS_Delay ; 0x13c0
        0x00001dc8:    e7ef        ..      B        0x1daa ; main + 86
    $d
        0x00001dca:    0000        ..      DCW    0
        0x00001dcc:    6c706d53    Smpl    DCD    1819307347
        0x00001dd0:    44434c5f    _LCD    DCD    1145261151
        0x00001dd4:    79654b5f    _Key    DCD    2036681567
        0x00001dd8:    00646170    pad.    DCD    6578544
        0x00001ddc:    7079654b    Keyp    DCD    1887003979
        0x00001de0:    203a6461    ad:     DCD    540697697
        0x00001de4:    20202020            DCD    538976288
        0x00001de8:    00202020       .    DCD    2105376
        0x00001dec:    50000100    ...P    DCD    1342177536
        0x00001df0:    02dc6c00    .l..    DCD    48000000
        0x00001df4:    00006425    %d..    DCD    25637
        0x00001df8:    00001388    ....    DCD    5000
    $t
    i.printC
    printC
        0x00001dfc:    b5fc        ..      PUSH     {r2-r7,lr}
        0x00001dfe:    4606        .F      MOV      r6,r0
        0x00001e00:    460d        .F      MOV      r5,r1
        0x00001e02:    4617        .F      MOV      r7,r2
        0x00001e04:    2400        .$      MOVS     r4,#0
        0x00001e06:    e017        ..      B        0x1e38 ; printC + 60
        0x00001e08:    17ea        ..      ASRS     r2,r5,#31
        0x00001e0a:    0f52        R.      LSRS     r2,r2,#29
        0x00001e0c:    1952        R.      ADDS     r2,r2,r5
        0x00001e0e:    0552        R.      LSLS     r2,r2,#21
        0x00001e10:    0e10        ..      LSRS     r0,r2,#24
        0x00001e12:    2281        ."      MOVS     r2,#0x81
        0x00001e14:    1b92        ..      SUBS     r2,r2,r6
        0x00001e16:    1b12        ..      SUBS     r2,r2,r4
        0x00001e18:    b2d1        ..      UXTB     r1,r2
        0x00001e1a:    9500        ..      STR      r5,[sp,#0]
        0x00001e1c:    f7fffec4    ....    BL       lcdSetAddr ; 0x1ba8
        0x00001e20:    4638        8F      MOV      r0,r7
        0x00001e22:    3820         8      SUBS     r0,r0,#0x20
        0x00001e24:    0100        ..      LSLS     r0,r0,#4
        0x00001e26:    1900        ..      ADDS     r0,r0,r4
        0x00001e28:    4914        .I      LDR      r1,[pc,#80] ; [0x1e7c] = 0x200001fc
        0x00001e2a:    5c08        .\      LDRB     r0,[r1,r0]
        0x00001e2c:    9001        ..      STR      r0,[sp,#4]
        0x00001e2e:    9801        ..      LDR      r0,[sp,#4]
        0x00001e30:    f7ffff64    ..d.    BL       lcdWriteData ; 0x1cfc
        0x00001e34:    1c60        `.      ADDS     r0,r4,#1
        0x00001e36:    b244        D.      SXTB     r4,r0
        0x00001e38:    2c08        .,      CMP      r4,#8
        0x00001e3a:    dbe5        ..      BLT      0x1e08 ; printC + 12
        0x00001e3c:    2400        .$      MOVS     r4,#0
        0x00001e3e:    e019        ..      B        0x1e74 ; printC + 120
        0x00001e40:    17ea        ..      ASRS     r2,r5,#31
        0x00001e42:    0f52        R.      LSRS     r2,r2,#29
        0x00001e44:    1952        R.      ADDS     r2,r2,r5
        0x00001e46:    10d2        ..      ASRS     r2,r2,#3
        0x00001e48:    1c52        R.      ADDS     r2,r2,#1
        0x00001e4a:    b2d0        ..      UXTB     r0,r2
        0x00001e4c:    2281        ."      MOVS     r2,#0x81
        0x00001e4e:    1b92        ..      SUBS     r2,r2,r6
        0x00001e50:    1b12        ..      SUBS     r2,r2,r4
        0x00001e52:    b2d1        ..      UXTB     r1,r2
        0x00001e54:    9500        ..      STR      r5,[sp,#0]
        0x00001e56:    f7fffea7    ....    BL       lcdSetAddr ; 0x1ba8
        0x00001e5a:    4638        8F      MOV      r0,r7
        0x00001e5c:    3820         8      SUBS     r0,r0,#0x20
        0x00001e5e:    0100        ..      LSLS     r0,r0,#4
        0x00001e60:    1900        ..      ADDS     r0,r0,r4
        0x00001e62:    3008        .0      ADDS     r0,r0,#8
        0x00001e64:    4905        .I      LDR      r1,[pc,#20] ; [0x1e7c] = 0x200001fc
        0x00001e66:    5c08        .\      LDRB     r0,[r1,r0]
        0x00001e68:    9001        ..      STR      r0,[sp,#4]
        0x00001e6a:    9801        ..      LDR      r0,[sp,#4]
        0x00001e6c:    f7ffff46    ..F.    BL       lcdWriteData ; 0x1cfc
        0x00001e70:    1c60        `.      ADDS     r0,r4,#1
        0x00001e72:    b244        D.      SXTB     r4,r0
        0x00001e74:    2c08        .,      CMP      r4,#8
        0x00001e76:    dbe3        ..      BLT      0x1e40 ; printC + 68
        0x00001e78:    bdfc        ..      POP      {r2-r7,pc}
    $d
        0x00001e7a:    0000        ..      DCW    0
        0x00001e7c:    200001fc    ...     DCD    536871420
    $t
    i.print_Line
    print_Line
        0x00001e80:    b570        p.      PUSH     {r4-r6,lr}
        0x00001e82:    4606        .F      MOV      r6,r0
        0x00001e84:    460d        .F      MOV      r5,r1
        0x00001e86:    2400        .$      MOVS     r4,#0
        0x00001e88:    e006        ..      B        0x1e98 ; print_Line + 24
        0x00001e8a:    5d2a        *]      LDRB     r2,[r5,r4]
        0x00001e8c:    0131        1.      LSLS     r1,r6,#4
        0x00001e8e:    00e0        ..      LSLS     r0,r4,#3
        0x00001e90:    f7ffffb4    ....    BL       printC ; 0x1dfc
        0x00001e94:    1c60        `.      ADDS     r0,r4,#1
        0x00001e96:    b244        D.      SXTB     r4,r0
        0x00001e98:    4628        (F      MOV      r0,r5
        0x00001e9a:    f7fefa1d    ....    BL       strlen ; 0x2d8
        0x00001e9e:    42a0        .B      CMP      r0,r4
        0x00001ea0:    d8f3        ..      BHI      0x1e8a ; print_Line + 10
        0x00001ea2:    bd70        p.      POP      {r4-r6,pc}
    $d.realdata
    .constdata
        0x00001ea4:    003e3d3b    ;=>.    DCD    4078907
    .constdata
        0x00001ea8:    00000001    ....    DCD    1
        0x00001eac:    00000002    ....    DCD    2
        0x00001eb0:    00000002    ....    DCD    2
        0x00001eb4:    00000004    ....    DCD    4
    Region$$Table$$Base
        0x00001eb8:    00001ed8    ....    DCD    7896
        0x00001ebc:    20000000    ...     DCD    536870912
        0x00001ec0:    00000824    $...    DCD    2084
        0x00001ec4:    00000104    ....    DCD    260
        0x00001ec8:    000026fc    .&..    DCD    9980
        0x00001ecc:    20000824    $..     DCD    536872996
        0x00001ed0:    000008b4    ....    DCD    2228
        0x00001ed4:    00000120     ...    DCD    288
    Region$$Table$$Limit

** Section #2 'ER_RW' (SHT_PROGBITS) [SHF_ALLOC + SHF_WRITE]
    Size   : 2084 bytes (alignment 4)
    Address: 0x20000000


** Section #3 'ER_ZI' (SHT_NOBITS) [SHF_ALLOC + SHF_WRITE]
    Size   : 2228 bytes (alignment 8)
    Address: 0x20000824


** Section #4 '.debug_abbrev' (SHT_PROGBITS)
    Size   : 1476 bytes


** Section #5 '.debug_frame' (SHT_PROGBITS)
    Size   : 2160 bytes


** Section #6 '.debug_info' (SHT_PROGBITS)
    Size   : 120436 bytes


** Section #7 '.debug_line' (SHT_PROGBITS)
    Size   : 9436 bytes


** Section #8 '.debug_loc' (SHT_PROGBITS)
    Size   : 2844 bytes


** Section #9 '.debug_macinfo' (SHT_PROGBITS)
    Size   : 142772 bytes


** Section #10 '.debug_pubnames' (SHT_PROGBITS)
    Size   : 1751 bytes


** Section #11 '.symtab' (SHT_SYMTAB)
    Size   : 7696 bytes (alignment 4)
    String table #12 '.strtab'
    Last local symbol no. 322


** Section #12 '.strtab' (SHT_STRTAB)
    Size   : 6332 bytes


** Section #13 '.note' (SHT_NOTE)
    Size   : 28 bytes (alignment 4)


** Section #14 '.comment' (SHT_PROGBITS)
    Size   : 6884 bytes


** Section #15 '.shstrtab' (SHT_STRTAB)
    Size   : 156 bytes


